Archive member included to satisfy reference by file (symbol)

G:\╄    单片机\WCH\CH573\Projects\CH571_BLE_Hygrothermograph\StdPeriphDriver\libISP573.a(ISP573.o)
                              ./StdPeriphDriver/CH57x_pwr.o (FLASH_EEPROM_CMD)
G:\╄    单片机\WCH\CH573\Projects\CH571_BLE_Hygrothermograph\LIB\libCH57xBLE.a(message.o)
                              ./HAL/MCU.o (tmos_msg_deallocate)
G:\╄    单片机\WCH\CH573\Projects\CH571_BLE_Hygrothermograph\LIB\libCH57xBLE.a(tmos.o)
                              ./Profile/devinfoservice.o (tmos_memcpy)
G:\╄    单片机\WCH\CH573\Projects\CH571_BLE_Hygrothermograph\LIB\libCH57xBLE.a(tmos_hw.o)
                              G:\╄    单片机\WCH\CH573\Projects\CH571_BLE_Hygrothermograph\LIB\libCH57xBLE.a(tmos.o) (RTC_Get32KClock)
G:\╄    单片机\WCH\CH573\Projects\CH571_BLE_Hygrothermograph\LIB\libCH57xBLE.a(tmos_snv.o)
                              G:\╄    单片机\WCH\CH573\Projects\CH571_BLE_Hygrothermograph\LIB\libCH57xBLE.a(tmos.o) (tmos_snv_init)
G:\╄    单片机\WCH\CH573\Projects\CH571_BLE_Hygrothermograph\LIB\libCH57xBLE.a(gap.o)
                              ./APP/broadcaster.o (GAP_SetParamValue)
G:\╄    单片机\WCH\CH573\Projects\CH571_BLE_Hygrothermograph\LIB\libCH57xBLE.a(gap_central.o)
                              G:\╄    单片机\WCH\CH573\Projects\CH571_BLE_Hygrothermograph\LIB\libCH57xBLE.a(gap.o) (GAP_CentralParamInit)
G:\╄    单片机\WCH\CH573\Projects\CH571_BLE_Hygrothermograph\LIB\libCH57xBLE.a(gap_peripheral.o)
                              G:\╄    单片机\WCH\CH573\Projects\CH571_BLE_Hygrothermograph\LIB\libCH57xBLE.a(gap.o) (GAP_PeripheralParamInit)
G:\╄    单片机\WCH\CH573\Projects\CH571_BLE_Hygrothermograph\LIB\libCH57xBLE.a(gatt_uuid.o)
                              ./Profile/devinfoservice.o (characterUUID)
G:\╄    单片机\WCH\CH573\Projects\CH571_BLE_Hygrothermograph\LIB\libCH57xBLE.a(gattservapp.o)
                              ./Profile/devinfoservice.o (GATTServApp_RegisterService)
G:\╄    单片机\WCH\CH573\Projects\CH571_BLE_Hygrothermograph\LIB\libCH57xBLE.a(l2cap.o)
                              G:\╄    单片机\WCH\CH573\Projects\CH571_BLE_Hygrothermograph\LIB\libCH57xBLE.a(gattservapp.o) (L2CAP_GetMTU)
G:\╄    单片机\WCH\CH573\Projects\CH571_BLE_Hygrothermograph\LIB\libCH57xBLE.a(l2cap_input.o)
                              G:\╄    单片机\WCH\CH573\Projects\CH571_BLE_Hygrothermograph\LIB\libCH57xBLE.a(l2cap.o) (l2capProcessRxData)
G:\╄    单片机\WCH\CH573\Projects\CH571_BLE_Hygrothermograph\LIB\libCH57xBLE.a(l2cap_output.o)
                              G:\╄    单片机\WCH\CH573\Projects\CH571_BLE_Hygrothermograph\LIB\libCH57xBLE.a(l2cap_input.o) (l2capNotifyData)
G:\╄    单片机\WCH\CH573\Projects\CH571_BLE_Hygrothermograph\LIB\libCH57xBLE.a(l2cap_sdu.o)
                              G:\╄    单片机\WCH\CH573\Projects\CH571_BLE_Hygrothermograph\LIB\libCH57xBLE.a(l2cap_input.o) (l2capBuildDisconnectRsp)
G:\╄    单片机\WCH\CH573\Projects\CH571_BLE_Hygrothermograph\LIB\libCH57xBLE.a(linkdb.o)
                              G:\╄    单片机\WCH\CH573\Projects\CH571_BLE_Hygrothermograph\LIB\libCH57xBLE.a(l2cap.o) (linkDB_Init)
G:\╄    单片机\WCH\CH573\Projects\CH571_BLE_Hygrothermograph\LIB\libCH57xBLE.a(sm.o)
                              G:\╄    单片机\WCH\CH573\Projects\CH571_BLE_Hygrothermograph\LIB\libCH57xBLE.a(gap.o) (smStartEncryption)
G:\╄    单片机\WCH\CH573\Projects\CH571_BLE_Hygrothermograph\LIB\libCH57xBLE.a(host_input.o)
                              G:\╄    单片机\WCH\CH573\Projects\CH571_BLE_Hygrothermograph\LIB\libCH57xBLE.a(gap.o) (gBleHostPara)
G:\╄    单片机\WCH\CH573\Projects\CH571_BLE_Hygrothermograph\LIB\libCH57xBLE.a(host_output.o)
                              G:\╄    单片机\WCH\CH573\Projects\CH571_BLE_Hygrothermograph\LIB\libCH57xBLE.a(gap.o) (HCI_DisconnectCmd)
G:\╄    单片机\WCH\CH573\Projects\CH571_BLE_Hygrothermograph\LIB\libCH57xBLE.a(ll_connect.o)
                              G:\╄    单片机\WCH\CH573\Projects\CH571_BLE_Hygrothermograph\LIB\libCH57xBLE.a(tmos.o) (LL_GetNextConnectEventTime)
G:\╄    单片机\WCH\CH573\Projects\CH571_BLE_Hygrothermograph\LIB\libCH57xBLE.a(ll_core.o)
                              G:\╄    单片机\WCH\CH573\Projects\CH571_BLE_Hygrothermograph\LIB\libCH57xBLE.a(ll_connect.o) (LL_CoreGetCore)
G:\╄    单片机\WCH\CH573\Projects\CH571_BLE_Hygrothermograph\LIB\libCH57xBLE.a(ll_hop.o)
                              G:\╄    单片机\WCH\CH573\Projects\CH571_BLE_Hygrothermograph\LIB\libCH57xBLE.a(ll_connect.o) (LL_HopGetChannel)
G:\╄    单片机\WCH\CH573\Projects\CH571_BLE_Hygrothermograph\LIB\libCH57xBLE.a(ll_master.o)
                              G:\╄    单片机\WCH\CH573\Projects\CH571_BLE_Hygrothermograph\LIB\libCH57xBLE.a(ll_connect.o) (ll_master_process)
G:\╄    单片机\WCH\CH573\Projects\CH571_BLE_Hygrothermograph\LIB\libCH57xBLE.a(ll_pdu.o)
                              G:\╄    单片机\WCH\CH573\Projects\CH571_BLE_Hygrothermograph\LIB\libCH57xBLE.a(ll_master.o) (LL_ConnectionUpdateReq)
G:\╄    单片机\WCH\CH573\Projects\CH571_BLE_Hygrothermograph\LIB\libCH57xBLE.a(ll_report.o)
                              G:\╄    单片机\WCH\CH573\Projects\CH571_BLE_Hygrothermograph\LIB\libCH57xBLE.a(ll_connect.o) (LL_ReportGenerateEvent)
G:\╄    单片机\WCH\CH573\Projects\CH571_BLE_Hygrothermograph\LIB\libCH57xBLE.a(ll_scan.o)
                              G:\╄    单片机\WCH\CH573\Projects\CH571_BLE_Hygrothermograph\LIB\libCH57xBLE.a(ll_master.o) (LL_ScanEnable)
G:\╄    单片机\WCH\CH573\Projects\CH571_BLE_Hygrothermograph\LIB\libCH57xBLE.a(ll_slave.o)
                              G:\╄    单片机\WCH\CH573\Projects\CH571_BLE_Hygrothermograph\LIB\libCH57xBLE.a(ll_connect.o) (ll_hw_timer_slave_recv_timeout)
G:\╄    单片机\WCH\CH573\Projects\CH571_BLE_Hygrothermograph\LIB\libCH57xBLE.a(ll_whitelist.o)
                              G:\╄    单片机\WCH\CH573\Projects\CH571_BLE_Hygrothermograph\LIB\libCH57xBLE.a(ll_scan.o) (LL_WhitelistLookup)
G:\╄    单片机\WCH\CH573\Projects\CH571_BLE_Hygrothermograph\LIB\libCH57xBLE.a(aes.o)
                              G:\╄    单片机\WCH\CH573\Projects\CH571_BLE_Hygrothermograph\LIB\libCH57xBLE.a(sm.o) (LL_Encrypt)
G:\╄    单片机\WCH\CH573\Projects\CH571_BLE_Hygrothermograph\LIB\libCH57xBLE.a(bb.o)
                              G:\╄    单片机\WCH\CH573\Projects\CH571_BLE_Hygrothermograph\LIB\libCH57xBLE.a(tmos.o) (BB_DevInit)
G:\╄    单片机\WCH\CH573\Projects\CH571_BLE_Hygrothermograph\LIB\libCH57xBLE.a(dma.o)
                              G:\╄    单片机\WCH\CH573\Projects\CH571_BLE_Hygrothermograph\LIB\libCH57xBLE.a(tmos.o) (DMA_DevInit)
G:\╄    单片机\WCH\CH573\Projects\CH571_BLE_Hygrothermograph\LIB\libCH57xBLE.a(ip.o)
                              G:\╄    单片机\WCH\CH573\Projects\CH571_BLE_Hygrothermograph\LIB\libCH57xBLE.a(ll_master.o) (ll_tx_wait_finish)
G:\╄    单片机\WCH\CH573\Projects\CH571_BLE_Hygrothermograph\LIB\libCH57xBLE.a(lle.o)
                              G:\╄    单片机\WCH\CH573\Projects\CH571_BLE_Hygrothermograph\LIB\libCH57xBLE.a(tmos.o) (LLE_DevInit)
G:\╄    单片机\WCH\CH573\Projects\CH571_BLE_Hygrothermograph\LIB\libCH57xBLE.a(rf_fh.o)
                              G:\╄    单片机\WCH\CH573\Projects\CH571_BLE_Hygrothermograph\LIB\libCH57xBLE.a(tmos.o) (RF_FrequencyHoppingChange)
G:\╄    单片机\WCH\CH573\Projects\CH571_BLE_Hygrothermograph\LIB\libCH57xBLE.a(rfend.o)
                              G:\╄    单片机\WCH\CH573\Projects\CH571_BLE_Hygrothermograph\LIB\libCH57xBLE.a(ip.o) (RFEND_DevInit)
G:\╄    单片机\WCH\CH573\Projects\CH571_BLE_Hygrothermograph\LIB\libCH57xBLE.a(api_c.o)
                              G:\╄    单片机\WCH\CH573\Projects\CH571_BLE_Hygrothermograph\LIB\libCH57xBLE.a(host_output.o) (API_DisconnectCmd)
G:\╄    单片机\WCH\CH573\Projects\CH571_BLE_Hygrothermograph\LIB\libCH57xBLE.a(ctl_input.o)
                              G:\╄    单片机\WCH\CH573\Projects\CH571_BLE_Hygrothermograph\LIB\libCH57xBLE.a(api_c.o) (LL_ReceiverTest)
G:\╄    单片机\WCH\CH573\Projects\CH571_BLE_Hygrothermograph\LIB\libCH57xBLE.a(ctl_output.o)
                              G:\╄    单片机\WCH\CH573\Projects\CH571_BLE_Hygrothermograph\LIB\libCH57xBLE.a(api_c.o) (HCI_SetEventMask)
G:\╄    单片机\WCH\CH573\Projects\CH571_BLE_Hygrothermograph\LIB\libCH57xBLE.a(broadcaster.o)
                              ./APP/broadcaster.o (GAPRole_BroadcasterStartDevice)
G:\╄    单片机\WCH\CH573\Projects\CH571_BLE_Hygrothermograph\LIB\libCH57xBLE.a(gapbondmgr.o)
                              G:\╄    单片机\WCH\CH573\Projects\CH571_BLE_Hygrothermograph\LIB\libCH57xBLE.a(gap_central.o) (GAPBondMgr_GetParameter)
G:\╄    单片机\WCH\CH573\Projects\CH571_BLE_Hygrothermograph\LIB\libCH57xBLE.a(role.o)
                              G:\╄    单片机\WCH\CH573\Projects\CH571_BLE_Hygrothermograph\LIB\libCH57xBLE.a(gap.o) (GAPRole_ParamInit)
G:\╄    单片机\WCH\CH573\Projects\CH571_BLE_Hygrothermograph\LIB\libCH57xBLE.a(memory.o)
                              G:\╄    单片机\WCH\CH573\Projects\CH571_BLE_Hygrothermograph\LIB\libCH57xBLE.a(tmos.o) (tmos_memory_init)
G:\╄    单片机\WCH\CH573\Projects\CH571_BLE_Hygrothermograph\LIB\libCH57xBLE.a(att.o)
                              G:\╄    单片机\WCH\CH573\Projects\CH571_BLE_Hygrothermograph\LIB\libCH57xBLE.a(gattservapp.o) (ATT_CompareUUID)
G:\╄    单片机\WCH\CH573\Projects\CH571_BLE_Hygrothermograph\LIB\libCH57xBLE.a(att_client.o)
                              G:\╄    单片机\WCH\CH573\Projects\CH571_BLE_Hygrothermograph\LIB\libCH57xBLE.a(att.o) (ATT_HandleValueConfirmation)
G:\╄    单片机\WCH\CH573\Projects\CH571_BLE_Hygrothermograph\LIB\libCH57xBLE.a(att_server.o)
                              G:\╄    单片机\WCH\CH573\Projects\CH571_BLE_Hygrothermograph\LIB\libCH57xBLE.a(gattservapp.o) (ATT_ParseExchangeMTUReq)
G:\╄    单片机\WCH\CH573\Projects\CH571_BLE_Hygrothermograph\LIB\libCH57xBLE.a(gapgattserver.o)
                              G:\╄    单片机\WCH\CH573\Projects\CH571_BLE_Hygrothermograph\LIB\libCH57xBLE.a(gattservapp.o) (GGS_ParamInit)
G:\╄    单片机\WCH\CH573\Projects\CH571_BLE_Hygrothermograph\LIB\libCH57xBLE.a(gatt.o)
                              G:\╄    单片机\WCH\CH573\Projects\CH571_BLE_Hygrothermograph\LIB\libCH57xBLE.a(gattservapp.o) (gattGetPayload)
G:\╄    单片机\WCH\CH573\Projects\CH571_BLE_Hygrothermograph\LIB\libCH57xBLE.a(gattclientapp.o)
                              G:\╄    单片机\WCH\CH573\Projects\CH571_BLE_Hygrothermograph\LIB\libCH57xBLE.a(gatt.o) (gattGetClientStatus)
G:\╄    单片机\WCH\CH573\Projects\CH571_BLE_Hygrothermograph\LIB\libCH57xBLE.a(ll.o)
                              G:\╄    单片机\WCH\CH573\Projects\CH571_BLE_Hygrothermograph\LIB\libCH57xBLE.a(ctl_input.o) (ll_get_prime_number)
G:\╄    单片机\WCH\CH573\Projects\CH571_BLE_Hygrothermograph\LIB\libCH57xBLE.a(ll_advertise.o)
                              G:\╄    单片机\WCH\CH573\Projects\CH571_BLE_Hygrothermograph\LIB\libCH57xBLE.a(ctl_input.o) (LL_AdvertiseToStandby)
G:\╄    单片机\WCH\CH573\Projects\CH571_BLE_Hygrothermograph\LIB\libCH57xBLE.a(ll_initiate.o)
                              G:\╄    单片机\WCH\CH573\Projects\CH571_BLE_Hygrothermograph\LIB\libCH57xBLE.a(ctl_input.o) (LL_InitiateToStandby)
G:\╄    单片机\WCH\CH573\Projects\CH571_BLE_Hygrothermograph\LIB\libCH57xBLE.a(ll_resolvinglist.o)
                              G:\╄    单片机\WCH\CH573\Projects\CH571_BLE_Hygrothermograph\LIB\libCH57xBLE.a(ll_advertise.o) (ll_resolvinglist_checkRPA)
G:\╄    单片机\WCH\CH573\Projects\CH571_BLE_Hygrothermograph\LIB\libCH57xBLE.a(central.o)
                              G:\╄    单片机\WCH\CH573\Projects\CH571_BLE_Hygrothermograph\LIB\libCH57xBLE.a(role.o) (GAPRole_CentralEnable)
G:\╄    单片机\WCH\CH573\Projects\CH571_BLE_Hygrothermograph\LIB\libCH57xBLE.a(observer.o)
                              G:\╄    单片机\WCH\CH573\Projects\CH571_BLE_Hygrothermograph\LIB\libCH57xBLE.a(role.o) (GAPRole_ObserverEnable)
G:\╄    单片机\WCH\CH573\Projects\CH571_BLE_Hygrothermograph\LIB\libCH57xBLE.a(peripheral.o)
                              G:\╄    单片机\WCH\CH573\Projects\CH571_BLE_Hygrothermograph\LIB\libCH57xBLE.a(role.o) (GAPRole_PeripheralEnable)
G:\╄    单片机\WCH\CH573\Projects\CH571_BLE_Hygrothermograph\LIB\libCH57xBLE.a(ll_address.o)
                              G:\╄    单片机\WCH\CH573\Projects\CH571_BLE_Hygrothermograph\LIB\libCH57xBLE.a(ll_resolvinglist.o) (LL_AddrGenerateResolvableAddress)
e:/mounriver/mounriver_studio/toolchain/risc-v embedded gcc/bin/../lib/gcc/riscv-none-embed/8.2.0/rv32imac/ilp32\libgcc.a(_lshrdi3.o)
                              G:\╄    单片机\WCH\CH573\Projects\CH571_BLE_Hygrothermograph\LIB\libCH57xBLE.a(ll_hop.o) (__lshrdi3)
e:/mounriver/mounriver_studio/toolchain/risc-v embedded gcc/bin/../lib/gcc/riscv-none-embed/8.2.0/rv32imac/ilp32\libgcc.a(_ashrdi3.o)
                              G:\╄    单片机\WCH\CH573\Projects\CH571_BLE_Hygrothermograph\LIB\libCH57xBLE.a(ctl_input.o) (__ashrdi3)
e:/mounriver/mounriver_studio/toolchain/risc-v embedded gcc/bin/../lib/gcc/riscv-none-embed/8.2.0/rv32imac/ilp32\libgcc.a(_divdi3.o)
                              G:\╄    单片机\WCH\CH573\Projects\CH571_BLE_Hygrothermograph\LIB\libCH57xBLE.a(ll_connect.o) (__divdi3)
e:/mounriver/mounriver_studio/toolchain/risc-v embedded gcc/bin/../lib/gcc/riscv-none-embed/8.2.0/rv32imac/ilp32\libgcc.a(_udivdi3.o)
                              G:\╄    单片机\WCH\CH573\Projects\CH571_BLE_Hygrothermograph\LIB\libCH57xBLE.a(ll_connect.o) (__udivdi3)
e:/mounriver/mounriver_studio/toolchain/risc-v embedded gcc/bin/../lib/gcc/riscv-none-embed/8.2.0/rv32imac/ilp32\libgcc.a(muldf3.o)
                              ./StdPeriphDriver/CH57x_clk.o (__muldf3)
e:/mounriver/mounriver_studio/toolchain/risc-v embedded gcc/bin/../lib/gcc/riscv-none-embed/8.2.0/rv32imac/ilp32\libgcc.a(floatsidf.o)
                              ./StdPeriphDriver/CH57x_clk.o (__floatsidf)
e:/mounriver/mounriver_studio/toolchain/risc-v embedded gcc/bin/../lib/gcc/riscv-none-embed/8.2.0/rv32imac/ilp32\libgcc.a(divsf3.o)
                              ./APP/SHT4X.o (__divsf3)
e:/mounriver/mounriver_studio/toolchain/risc-v embedded gcc/bin/../lib/gcc/riscv-none-embed/8.2.0/rv32imac/ilp32\libgcc.a(mulsf3.o)
                              ./StdPeriphDriver/CH57x_clk.o (__mulsf3)
e:/mounriver/mounriver_studio/toolchain/risc-v embedded gcc/bin/../lib/gcc/riscv-none-embed/8.2.0/rv32imac/ilp32\libgcc.a(fixsfsi.o)
                              ./StdPeriphDriver/CH57x_clk.o (__fixsfsi)
e:/mounriver/mounriver_studio/toolchain/risc-v embedded gcc/bin/../lib/gcc/riscv-none-embed/8.2.0/rv32imac/ilp32\libgcc.a(fixunssfsi.o)
                              ./APP/broadcaster.o (__fixunssfsi)
e:/mounriver/mounriver_studio/toolchain/risc-v embedded gcc/bin/../lib/gcc/riscv-none-embed/8.2.0/rv32imac/ilp32\libgcc.a(floatsisf.o)
                              ./StdPeriphDriver/CH57x_clk.o (__floatsisf)
e:/mounriver/mounriver_studio/toolchain/risc-v embedded gcc/bin/../lib/gcc/riscv-none-embed/8.2.0/rv32imac/ilp32\libgcc.a(truncdfsf2.o)
                              ./StdPeriphDriver/CH57x_clk.o (__truncdfsf2)
e:/mounriver/mounriver_studio/toolchain/risc-v embedded gcc/bin/../lib/gcc/riscv-none-embed/8.2.0/rv32imac/ilp32\libgcc.a(_clz.o)
                              e:/mounriver/mounriver_studio/toolchain/risc-v embedded gcc/bin/../lib/gcc/riscv-none-embed/8.2.0/rv32imac/ilp32\libgcc.a(_divdi3.o) (__clz_tab)
e:/mounriver/mounriver_studio/toolchain/risc-v embedded gcc/bin/../lib/gcc/riscv-none-embed/8.2.0/rv32imac/ilp32\libgcc.a(_clzsi2.o)
                              e:/mounriver/mounriver_studio/toolchain/risc-v embedded gcc/bin/../lib/gcc/riscv-none-embed/8.2.0/rv32imac/ilp32\libgcc.a(muldf3.o) (__clzsi2)
e:/mounriver/mounriver_studio/toolchain/risc-v embedded gcc/bin/../lib/gcc/riscv-none-embed/8.2.0/../../../../riscv-none-embed/lib/rv32imac/ilp32\libg_nano.a(lib_a-memcpy.o)
                              G:\╄    单片机\WCH\CH573\Projects\CH571_BLE_Hygrothermograph\LIB\libCH57xBLE.a(gapgattserver.o) (memcpy)

Discarded input sections

 .text          0x0000000000000000        0x0 ./StdPeriphDriver/CH57x_adc.o
 .data          0x0000000000000000        0x0 ./StdPeriphDriver/CH57x_adc.o
 .bss           0x0000000000000000        0x0 ./StdPeriphDriver/CH57x_adc.o
 .text.ADC_ExtDiffChSampInit
                0x0000000000000000       0x24 ./StdPeriphDriver/CH57x_adc.o
 .text.ADC_InterBATSampInit
                0x0000000000000000       0x1e ./StdPeriphDriver/CH57x_adc.o
 .text.TouchKey_ChSampInit
                0x0000000000000000       0x1a ./StdPeriphDriver/CH57x_adc.o
 .text.TouchKey_ExcutSingleConver
                0x0000000000000000       0x2e ./StdPeriphDriver/CH57x_adc.o
 .text.ADC_AutoConverCycle
                0x0000000000000000        0xa ./StdPeriphDriver/CH57x_adc.o
 .text.ADC_DMACfg
                0x0000000000000000       0x42 ./StdPeriphDriver/CH57x_adc.o
 .text.adc_to_temperature_celsius
                0x0000000000000000       0x24 ./StdPeriphDriver/CH57x_adc.o
 .text          0x0000000000000000        0x0 ./StdPeriphDriver/CH57x_clk.o
 .data          0x0000000000000000        0x0 ./StdPeriphDriver/CH57x_clk.o
 .bss           0x0000000000000000        0x0 ./StdPeriphDriver/CH57x_clk.o
 .text.LClk32K_Select
                0x0000000000000000       0x34 ./StdPeriphDriver/CH57x_clk.o
 .text.HSECFG_Capacitance
                0x0000000000000000       0x2e ./StdPeriphDriver/CH57x_clk.o
 .text.LSECFG_Current
                0x0000000000000000       0x2a ./StdPeriphDriver/CH57x_clk.o
 .text.LSECFG_Capacitance
                0x0000000000000000       0x2c ./StdPeriphDriver/CH57x_clk.o
 .text.LSI_SetTune_FLASH
                0x0000000000000000       0x26 ./StdPeriphDriver/CH57x_clk.o
 .text.LSI_SetTune_RAM
                0x0000000000000000       0x26 ./StdPeriphDriver/CH57x_clk.o
 .text.RTC_GetTime
                0x0000000000000000      0x15c ./StdPeriphDriver/CH57x_clk.o
 .text.RTC_SetCycle32k
                0x0000000000000000       0x5a ./StdPeriphDriver/CH57x_clk.o
 .text.RTC_TMRFunCfg
                0x0000000000000000       0x40 ./StdPeriphDriver/CH57x_clk.o
 .text.RTC_TRIGFunCfg
                0x0000000000000000       0x48 ./StdPeriphDriver/CH57x_clk.o
 .text.RTC_ModeFunDisable
                0x0000000000000000       0x38 ./StdPeriphDriver/CH57x_clk.o
 .text.RTC_GetITFlag
                0x0000000000000000       0x1a ./StdPeriphDriver/CH57x_clk.o
 .text.RTC_ClearITFlag
                0x0000000000000000       0x20 ./StdPeriphDriver/CH57x_clk.o
 .text          0x0000000000000000        0x0 ./StdPeriphDriver/CH57x_flash.o
 .data          0x0000000000000000        0x0 ./StdPeriphDriver/CH57x_flash.o
 .bss           0x0000000000000000        0x0 ./StdPeriphDriver/CH57x_flash.o
 .text.FLASH_ROM_READ
                0x0000000000000000       0x1c ./StdPeriphDriver/CH57x_flash.o
 .debug_info    0x0000000000000000      0xc2a ./StdPeriphDriver/CH57x_flash.o
 .debug_abbrev  0x0000000000000000      0x21a ./StdPeriphDriver/CH57x_flash.o
 .debug_loc     0x0000000000000000       0xff ./StdPeriphDriver/CH57x_flash.o
 .debug_aranges
                0x0000000000000000       0x20 ./StdPeriphDriver/CH57x_flash.o
 .debug_ranges  0x0000000000000000       0x10 ./StdPeriphDriver/CH57x_flash.o
 .debug_line    0x0000000000000000      0x2b1 ./StdPeriphDriver/CH57x_flash.o
 .debug_str     0x0000000000000000      0x787 ./StdPeriphDriver/CH57x_flash.o
 .comment       0x0000000000000000       0x34 ./StdPeriphDriver/CH57x_flash.o
 .debug_frame   0x0000000000000000       0x20 ./StdPeriphDriver/CH57x_flash.o
 .text          0x0000000000000000        0x0 ./StdPeriphDriver/CH57x_gpio.o
 .data          0x0000000000000000        0x0 ./StdPeriphDriver/CH57x_gpio.o
 .bss           0x0000000000000000        0x0 ./StdPeriphDriver/CH57x_gpio.o
 .text.GPIOA_ITModeCfg
                0x0000000000000000       0x82 ./StdPeriphDriver/CH57x_gpio.o
 .text.GPIOB_ITModeCfg
                0x0000000000000000       0x8a ./StdPeriphDriver/CH57x_gpio.o
 .text.GPIOPinRemap
                0x0000000000000000       0x1a ./StdPeriphDriver/CH57x_gpio.o
 .text.GPIOAGPPCfg
                0x0000000000000000       0x1a ./StdPeriphDriver/CH57x_gpio.o
 .text          0x0000000000000000        0x0 ./StdPeriphDriver/CH57x_pwr.o
 .data          0x0000000000000000        0x0 ./StdPeriphDriver/CH57x_pwr.o
 .bss           0x0000000000000000        0x0 ./StdPeriphDriver/CH57x_pwr.o
 .text.PWR_UnitModCfg
                0x0000000000000000       0x5c ./StdPeriphDriver/CH57x_pwr.o
 .text.PWR_PeriphClkCfg
                0x0000000000000000       0x2e ./StdPeriphDriver/CH57x_pwr.o
 .text.PWR_PeriphWakeUpCfg
                0x0000000000000000       0x78 ./StdPeriphDriver/CH57x_pwr.o
 .text.PowerMonitor
                0x0000000000000000       0x94 ./StdPeriphDriver/CH57x_pwr.o
 .srodata       0x0000000000000000        0x4 ./StdPeriphDriver/CH57x_pwr.o
 .text          0x0000000000000000        0x0 ./StdPeriphDriver/CH57x_sys.o
 .data          0x0000000000000000        0x0 ./StdPeriphDriver/CH57x_sys.o
 .bss           0x0000000000000000        0x0 ./StdPeriphDriver/CH57x_sys.o
 .text.GetSysClock
                0x0000000000000000       0x42 ./StdPeriphDriver/CH57x_sys.o
 .text.SYS_GetInfoSta
                0x0000000000000000       0x24 ./StdPeriphDriver/CH57x_sys.o
 .text.WWDG_ITCfg
                0x0000000000000000       0x34 ./StdPeriphDriver/CH57x_sys.o
 .text.WWDG_ResetCfg
                0x0000000000000000       0x34 ./StdPeriphDriver/CH57x_sys.o
 .text.WWDG_ClearFlag
                0x0000000000000000       0x26 ./StdPeriphDriver/CH57x_sys.o
 .text._write   0x0000000000000000       0x28 ./StdPeriphDriver/CH57x_sys.o
 .text          0x0000000000000000        0x0 ./StdPeriphDriver/CH57x_uart1.o
 .data          0x0000000000000000        0x0 ./StdPeriphDriver/CH57x_uart1.o
 .bss           0x0000000000000000        0x0 ./StdPeriphDriver/CH57x_uart1.o
 .text.UART1_BaudRateCfg
                0x0000000000000000       0x36 ./StdPeriphDriver/CH57x_uart1.o
 .text.UART1_DefInit
                0x0000000000000000       0x38 ./StdPeriphDriver/CH57x_uart1.o
 .text.UART1_ByteTrigCfg
                0x0000000000000000       0x1a ./StdPeriphDriver/CH57x_uart1.o
 .text.UART1_INTCfg
                0x0000000000000000       0x2a ./StdPeriphDriver/CH57x_uart1.o
 .text.UART1_Reset
                0x0000000000000000        0xe ./StdPeriphDriver/CH57x_uart1.o
 .text.UART1_SendString
                0x0000000000000000       0x28 ./StdPeriphDriver/CH57x_uart1.o
 .text.UART1_RecvString
                0x0000000000000000       0x2a ./StdPeriphDriver/CH57x_uart1.o
 .debug_info    0x0000000000000000      0xd86 ./StdPeriphDriver/CH57x_uart1.o
 .debug_abbrev  0x0000000000000000      0x2aa ./StdPeriphDriver/CH57x_uart1.o
 .debug_loc     0x0000000000000000      0x1ed ./StdPeriphDriver/CH57x_uart1.o
 .debug_aranges
                0x0000000000000000       0x50 ./StdPeriphDriver/CH57x_uart1.o
 .debug_ranges  0x0000000000000000       0x40 ./StdPeriphDriver/CH57x_uart1.o
 .debug_line    0x0000000000000000      0x5cc ./StdPeriphDriver/CH57x_uart1.o
 .debug_str     0x0000000000000000      0x85b ./StdPeriphDriver/CH57x_uart1.o
 .comment       0x0000000000000000       0x34 ./StdPeriphDriver/CH57x_uart1.o
 .debug_frame   0x0000000000000000       0x9c ./StdPeriphDriver/CH57x_uart1.o
 .text          0x0000000000000000        0x0 ./Startup/startup_CH573.o
 .data          0x0000000000000000        0x0 ./Startup/startup_CH573.o
 .bss           0x0000000000000000        0x0 ./Startup/startup_CH573.o
 .text          0x0000000000000000        0x0 ./RVMSIS/core_riscv.o
 .data          0x0000000000000000        0x0 ./RVMSIS/core_riscv.o
 .bss           0x0000000000000000        0x0 ./RVMSIS/core_riscv.o
 .text.__get_FFLAGS
                0x0000000000000000        0x6 ./RVMSIS/core_riscv.o
 .text.__set_FFLAGS
                0x0000000000000000        0x6 ./RVMSIS/core_riscv.o
 .text.__get_FRM
                0x0000000000000000        0x6 ./RVMSIS/core_riscv.o
 .text.__set_FRM
                0x0000000000000000        0x6 ./RVMSIS/core_riscv.o
 .text.__get_FCSR
                0x0000000000000000        0x6 ./RVMSIS/core_riscv.o
 .text.__set_FCSR
                0x0000000000000000        0x6 ./RVMSIS/core_riscv.o
 .text.__get_MSTATUS
                0x0000000000000000        0x6 ./RVMSIS/core_riscv.o
 .text.__set_MSTATUS
                0x0000000000000000        0x6 ./RVMSIS/core_riscv.o
 .text.__get_MISA
                0x0000000000000000        0x6 ./RVMSIS/core_riscv.o
 .text.__set_MISA
                0x0000000000000000        0x6 ./RVMSIS/core_riscv.o
 .text.__get_MIE
                0x0000000000000000        0x6 ./RVMSIS/core_riscv.o
 .text.__set_MIE
                0x0000000000000000        0x6 ./RVMSIS/core_riscv.o
 .text.__get_MTVEC
                0x0000000000000000        0x6 ./RVMSIS/core_riscv.o
 .text.__set_MTVEC
                0x0000000000000000        0x6 ./RVMSIS/core_riscv.o
 .text.__get_MSCRATCH
                0x0000000000000000        0x6 ./RVMSIS/core_riscv.o
 .text.__set_MSCRATCH
                0x0000000000000000        0x6 ./RVMSIS/core_riscv.o
 .text.__get_MEPC
                0x0000000000000000        0x6 ./RVMSIS/core_riscv.o
 .text.__set_MEPC
                0x0000000000000000        0x6 ./RVMSIS/core_riscv.o
 .text.__get_MCAUSE
                0x0000000000000000        0x6 ./RVMSIS/core_riscv.o
 .text.__set_MCAUSE
                0x0000000000000000        0x6 ./RVMSIS/core_riscv.o
 .text.__get_MTVAL
                0x0000000000000000        0x6 ./RVMSIS/core_riscv.o
 .text.__set_MTVAL
                0x0000000000000000        0x6 ./RVMSIS/core_riscv.o
 .text.__get_MIP
                0x0000000000000000        0x6 ./RVMSIS/core_riscv.o
 .text.__set_MIP
                0x0000000000000000        0x6 ./RVMSIS/core_riscv.o
 .text.__get_MCYCLE
                0x0000000000000000        0x6 ./RVMSIS/core_riscv.o
 .text.__set_MCYCLE
                0x0000000000000000        0x6 ./RVMSIS/core_riscv.o
 .text.__get_MCYCLEH
                0x0000000000000000        0x6 ./RVMSIS/core_riscv.o
 .text.__set_MCYCLEH
                0x0000000000000000        0x6 ./RVMSIS/core_riscv.o
 .text.__get_MINSTRET
                0x0000000000000000        0x6 ./RVMSIS/core_riscv.o
 .text.__set_MINSTRET
                0x0000000000000000        0x6 ./RVMSIS/core_riscv.o
 .text.__get_MINSTRETH
                0x0000000000000000        0x6 ./RVMSIS/core_riscv.o
 .text.__set_MINSTRETH
                0x0000000000000000        0x6 ./RVMSIS/core_riscv.o
 .text.__get_MVENDORID
                0x0000000000000000        0x6 ./RVMSIS/core_riscv.o
 .text.__get_MARCHID
                0x0000000000000000        0x6 ./RVMSIS/core_riscv.o
 .text.__get_MIMPID
                0x0000000000000000        0x6 ./RVMSIS/core_riscv.o
 .text.__get_MHARTID
                0x0000000000000000        0x6 ./RVMSIS/core_riscv.o
 .debug_info    0x0000000000000000      0x624 ./RVMSIS/core_riscv.o
 .debug_abbrev  0x0000000000000000      0x10d ./RVMSIS/core_riscv.o
 .debug_aranges
                0x0000000000000000      0x138 ./RVMSIS/core_riscv.o
 .debug_ranges  0x0000000000000000      0x128 ./RVMSIS/core_riscv.o
 .debug_line    0x0000000000000000      0x70b ./RVMSIS/core_riscv.o
 .debug_str     0x0000000000000000      0x369 ./RVMSIS/core_riscv.o
 .comment       0x0000000000000000       0x34 ./RVMSIS/core_riscv.o
 .debug_frame   0x0000000000000000      0x250 ./RVMSIS/core_riscv.o
 .text          0x0000000000000000        0x0 ./Profile/devinfoservice.o
 .data          0x0000000000000000      0x13c ./Profile/devinfoservice.o
 .bss           0x0000000000000000        0x0 ./Profile/devinfoservice.o
 .text.devInfo_ReadAttrCB
                0x0000000000000000      0x19e ./Profile/devinfoservice.o
 .text.DevInfo_AddService
                0x0000000000000000       0x1c ./Profile/devinfoservice.o
 .text.DevInfo_SetParameter
                0x0000000000000000       0x28 ./Profile/devinfoservice.o
 .text.DevInfo_GetParameter
                0x0000000000000000       0x9e ./Profile/devinfoservice.o
 .rodata        0x0000000000000000       0xa2 ./Profile/devinfoservice.o
 .sbss          0x0000000000000000        0x8 ./Profile/devinfoservice.o
 .sdata         0x0000000000000000       0x10 ./Profile/devinfoservice.o
 .srodata       0x0000000000000000       0x2e ./Profile/devinfoservice.o
 .debug_info    0x0000000000000000     0x133e ./Profile/devinfoservice.o
 .debug_abbrev  0x0000000000000000      0x2cc ./Profile/devinfoservice.o
 .debug_loc     0x0000000000000000      0x35c ./Profile/devinfoservice.o
 .debug_aranges
                0x0000000000000000       0x38 ./Profile/devinfoservice.o
 .debug_ranges  0x0000000000000000       0x28 ./Profile/devinfoservice.o
 .debug_line    0x0000000000000000      0x754 ./Profile/devinfoservice.o
 .debug_str     0x0000000000000000      0xccb ./Profile/devinfoservice.o
 .comment       0x0000000000000000       0x34 ./Profile/devinfoservice.o
 .debug_frame   0x0000000000000000       0x80 ./Profile/devinfoservice.o
 .text          0x0000000000000000        0x0 ./HAL/MCU.o
 .data          0x0000000000000000        0x0 ./HAL/MCU.o
 .bss           0x0000000000000000        0x0 ./HAL/MCU.o
 .text          0x0000000000000000        0x0 ./HAL/RTC.o
 .data          0x0000000000000000        0x0 ./HAL/RTC.o
 .bss           0x0000000000000000        0x0 ./HAL/RTC.o
 .text          0x0000000000000000        0x0 ./HAL/SLEEP.o
 .data          0x0000000000000000        0x0 ./HAL/SLEEP.o
 .bss           0x0000000000000000        0x0 ./HAL/SLEEP.o
 .text          0x0000000000000000        0x0 ./APP/I2C.o
 .data          0x0000000000000000        0x0 ./APP/I2C.o
 .bss           0x0000000000000000        0x0 ./APP/I2C.o
 .text.I2C_delay
                0x0000000000000000        0xc ./APP/I2C.o
 .text.I2CAddress
                0x0000000000000000       0x2a ./APP/I2C.o
 .text          0x0000000000000000        0x0 ./APP/SHT4X.o
 .data          0x0000000000000000        0x0 ./APP/SHT4X.o
 .bss           0x0000000000000000        0x0 ./APP/SHT4X.o
 .text          0x0000000000000000        0x0 ./APP/broadcaster.o
 .bss           0x0000000000000000        0x0 ./APP/broadcaster.o
 .text          0x0000000000000000        0x0 ./APP/broadcaster_main.o
 .data          0x0000000000000000        0x0 ./APP/broadcaster_main.o
 .text          0x0000000000000000        0x0 G:\╄    单片机\WCH\CH573\Projects\CH571_BLE_Hygrothermograph\StdPeriphDriver\libISP573.a(ISP573.o)
 .data          0x0000000000000000        0x0 G:\╄    单片机\WCH\CH573\Projects\CH571_BLE_Hygrothermograph\StdPeriphDriver\libISP573.a(ISP573.o)
 .bss           0x0000000000000000        0x0 G:\╄    单片机\WCH\CH573\Projects\CH571_BLE_Hygrothermograph\StdPeriphDriver\libISP573.a(ISP573.o)
 .text          0x0000000000000000        0x0 G:\╄    单片机\WCH\CH573\Projects\CH571_BLE_Hygrothermograph\LIB\libCH57xBLE.a(message.o)
 .data          0x0000000000000000        0x0 G:\╄    单片机\WCH\CH573\Projects\CH571_BLE_Hygrothermograph\LIB\libCH57xBLE.a(message.o)
 .bss           0x0000000000000000        0x0 G:\╄    单片机\WCH\CH573\Projects\CH571_BLE_Hygrothermograph\LIB\libCH57xBLE.a(message.o)
 .text.tmos_msg_push
                0x0000000000000000        0xa G:\╄    单片机\WCH\CH573\Projects\CH571_BLE_Hygrothermograph\LIB\libCH57xBLE.a(message.o)
 .text.tmos_msg_push_front
                0x0000000000000000       0x70 G:\╄    单片机\WCH\CH573\Projects\CH571_BLE_Hygrothermograph\LIB\libCH57xBLE.a(message.o)
 .text          0x0000000000000000        0x0 G:\╄    单片机\WCH\CH573\Projects\CH571_BLE_Hygrothermograph\LIB\libCH57xBLE.a(tmos.o)
 .data          0x0000000000000000        0x0 G:\╄    单片机\WCH\CH573\Projects\CH571_BLE_Hygrothermograph\LIB\libCH57xBLE.a(tmos.o)
 .bss           0x0000000000000000        0x0 G:\╄    单片机\WCH\CH573\Projects\CH571_BLE_Hygrothermograph\LIB\libCH57xBLE.a(tmos.o)
 .text.TMOS_GetSystemClock
                0x0000000000000000        0xc G:\╄    单片机\WCH\CH573\Projects\CH571_BLE_Hygrothermograph\LIB\libCH57xBLE.a(tmos.o)
 .text.tmos_get_event
                0x0000000000000000       0x14 G:\╄    单片机\WCH\CH573\Projects\CH571_BLE_Hygrothermograph\LIB\libCH57xBLE.a(tmos.o)
 .text.TMOS_ProcessGet
                0x0000000000000000       0x1a G:\╄    单片机\WCH\CH573\Projects\CH571_BLE_Hygrothermograph\LIB\libCH57xBLE.a(tmos.o)
 .text.TMOS_SystemProcessRegister
                0x0000000000000000        0xa G:\╄    单片机\WCH\CH573\Projects\CH571_BLE_Hygrothermograph\LIB\libCH57xBLE.a(tmos.o)
 .text          0x0000000000000000        0x0 G:\╄    单片机\WCH\CH573\Projects\CH571_BLE_Hygrothermograph\LIB\libCH57xBLE.a(tmos_hw.o)
 .data          0x0000000000000000        0x0 G:\╄    单片机\WCH\CH573\Projects\CH571_BLE_Hygrothermograph\LIB\libCH57xBLE.a(tmos_hw.o)
 .bss           0x0000000000000000        0x0 G:\╄    单片机\WCH\CH573\Projects\CH571_BLE_Hygrothermograph\LIB\libCH57xBLE.a(tmos_hw.o)
 .text          0x0000000000000000        0x0 G:\╄    单片机\WCH\CH573\Projects\CH571_BLE_Hygrothermograph\LIB\libCH57xBLE.a(tmos_snv.o)
 .data          0x0000000000000000        0x0 G:\╄    单片机\WCH\CH573\Projects\CH571_BLE_Hygrothermograph\LIB\libCH57xBLE.a(tmos_snv.o)
 .bss           0x0000000000000000        0x0 G:\╄    单片机\WCH\CH573\Projects\CH571_BLE_Hygrothermograph\LIB\libCH57xBLE.a(tmos_snv.o)
 .text          0x0000000000000000        0x0 G:\╄    单片机\WCH\CH573\Projects\CH571_BLE_Hygrothermograph\LIB\libCH57xBLE.a(gap.o)
 .data          0x0000000000000000        0x0 G:\╄    单片机\WCH\CH573\Projects\CH571_BLE_Hygrothermograph\LIB\libCH57xBLE.a(gap.o)
 .bss           0x0000000000000000        0x0 G:\╄    单片机\WCH\CH573\Projects\CH571_BLE_Hygrothermograph\LIB\libCH57xBLE.a(gap.o)
 .text.GAP_UpdateLinkParamReq
                0x0000000000000000       0xc8 G:\╄    单片机\WCH\CH573\Projects\CH571_BLE_Hygrothermograph\LIB\libCH57xBLE.a(gap.o)
 .text.GAP_SendSlaveSecurityRequest
                0x0000000000000000       0x58 G:\╄    单片机\WCH\CH573\Projects\CH571_BLE_Hygrothermograph\LIB\libCH57xBLE.a(gap.o)
 .text.GAP_Signable
                0x0000000000000000       0x6e G:\╄    单片机\WCH\CH573\Projects\CH571_BLE_Hygrothermograph\LIB\libCH57xBLE.a(gap.o)
 .text.GAP_PasskeyUpdate
                0x0000000000000000       0x42 G:\╄    单片机\WCH\CH573\Projects\CH571_BLE_Hygrothermograph\LIB\libCH57xBLE.a(gap.o)
 .text          0x0000000000000000        0x0 G:\╄    单片机\WCH\CH573\Projects\CH571_BLE_Hygrothermograph\LIB\libCH57xBLE.a(gap_central.o)
 .data          0x0000000000000000        0x0 G:\╄    单片机\WCH\CH573\Projects\CH571_BLE_Hygrothermograph\LIB\libCH57xBLE.a(gap_central.o)
 .bss           0x0000000000000000        0x0 G:\╄    单片机\WCH\CH573\Projects\CH571_BLE_Hygrothermograph\LIB\libCH57xBLE.a(gap_central.o)
 .text.GAP_DeviceDiscoveryCancel
                0x0000000000000000       0x4c G:\╄    单片机\WCH\CH573\Projects\CH571_BLE_Hygrothermograph\LIB\libCH57xBLE.a(gap_central.o)
 .text.GAP_DeviceDiscoveryRequest
                0x0000000000000000       0xb0 G:\╄    单片机\WCH\CH573\Projects\CH571_BLE_Hygrothermograph\LIB\libCH57xBLE.a(gap_central.o)
 .text.GAP_EstablishLinkReq
                0x0000000000000000      0x178 G:\╄    单片机\WCH\CH573\Projects\CH571_BLE_Hygrothermograph\LIB\libCH57xBLE.a(gap_central.o)
 .text          0x0000000000000000        0x0 G:\╄    单片机\WCH\CH573\Projects\CH571_BLE_Hygrothermograph\LIB\libCH57xBLE.a(gap_peripheral.o)
 .data          0x0000000000000000        0x0 G:\╄    单片机\WCH\CH573\Projects\CH571_BLE_Hygrothermograph\LIB\libCH57xBLE.a(gap_peripheral.o)
 .bss           0x0000000000000000        0x0 G:\╄    单片机\WCH\CH573\Projects\CH571_BLE_Hygrothermograph\LIB\libCH57xBLE.a(gap_peripheral.o)
 .text.GAP_RemoveAdvToken
                0x0000000000000000       0x58 G:\╄    单片机\WCH\CH573\Projects\CH571_BLE_Hygrothermograph\LIB\libCH57xBLE.a(gap_peripheral.o)
 .text.GAP_UpdateAdvTokens
                0x0000000000000000      0x186 G:\╄    单片机\WCH\CH573\Projects\CH571_BLE_Hygrothermograph\LIB\libCH57xBLE.a(gap_peripheral.o)
 .text.GAP_SetAdvToken
                0x0000000000000000       0xf0 G:\╄    单片机\WCH\CH573\Projects\CH571_BLE_Hygrothermograph\LIB\libCH57xBLE.a(gap_peripheral.o)
 .text.GAP_ConfigDeviceAddr
                0x0000000000000000      0x13e G:\╄    单片机\WCH\CH573\Projects\CH571_BLE_Hygrothermograph\LIB\libCH57xBLE.a(gap_peripheral.o)
 .text          0x0000000000000000        0x0 G:\╄    单片机\WCH\CH573\Projects\CH571_BLE_Hygrothermograph\LIB\libCH57xBLE.a(gatt_uuid.o)
 .data          0x0000000000000000        0x0 G:\╄    单片机\WCH\CH573\Projects\CH571_BLE_Hygrothermograph\LIB\libCH57xBLE.a(gatt_uuid.o)
 .bss           0x0000000000000000        0x0 G:\╄    单片机\WCH\CH573\Projects\CH571_BLE_Hygrothermograph\LIB\libCH57xBLE.a(gatt_uuid.o)
 .text.GATT_FindUUIDRec
                0x0000000000000000      0x17a G:\╄    单片机\WCH\CH573\Projects\CH571_BLE_Hygrothermograph\LIB\libCH57xBLE.a(gatt_uuid.o)
 .sdata2.charAggFormatUUID
                0x0000000000000000        0x2 G:\╄    单片机\WCH\CH573\Projects\CH571_BLE_Hygrothermograph\LIB\libCH57xBLE.a(gatt_uuid.o)
 .sdata2.charExtPropsUUID
                0x0000000000000000        0x2 G:\╄    单片机\WCH\CH573\Projects\CH571_BLE_Hygrothermograph\LIB\libCH57xBLE.a(gatt_uuid.o)
 .sdata2.charFormatUUID
                0x0000000000000000        0x2 G:\╄    单片机\WCH\CH573\Projects\CH571_BLE_Hygrothermograph\LIB\libCH57xBLE.a(gatt_uuid.o)
 .sdata2.charUserDescUUID
                0x0000000000000000        0x2 G:\╄    单片机\WCH\CH573\Projects\CH571_BLE_Hygrothermograph\LIB\libCH57xBLE.a(gatt_uuid.o)
 .sdata2.extReportRefUUID
                0x0000000000000000        0x2 G:\╄    单片机\WCH\CH573\Projects\CH571_BLE_Hygrothermograph\LIB\libCH57xBLE.a(gatt_uuid.o)
 .sdata2.includeUUID
                0x0000000000000000        0x2 G:\╄    单片机\WCH\CH573\Projects\CH571_BLE_Hygrothermograph\LIB\libCH57xBLE.a(gatt_uuid.o)
 .sdata2.periPrivacyFlagUUID
                0x0000000000000000        0x2 G:\╄    单片机\WCH\CH573\Projects\CH571_BLE_Hygrothermograph\LIB\libCH57xBLE.a(gatt_uuid.o)
 .sdata2.reconnectAddrUUID
                0x0000000000000000        0x2 G:\╄    单片机\WCH\CH573\Projects\CH571_BLE_Hygrothermograph\LIB\libCH57xBLE.a(gatt_uuid.o)
 .sdata2.reportRefUUID
                0x0000000000000000        0x2 G:\╄    单片机\WCH\CH573\Projects\CH571_BLE_Hygrothermograph\LIB\libCH57xBLE.a(gatt_uuid.o)
 .sdata2.servCharCfgUUID
                0x0000000000000000        0x2 G:\╄    单片机\WCH\CH573\Projects\CH571_BLE_Hygrothermograph\LIB\libCH57xBLE.a(gatt_uuid.o)
 .sdata2.validRangeUUID
                0x0000000000000000        0x2 G:\╄    单片机\WCH\CH573\Projects\CH571_BLE_Hygrothermograph\LIB\libCH57xBLE.a(gatt_uuid.o)
 .text          0x0000000000000000        0x0 G:\╄    单片机\WCH\CH573\Projects\CH571_BLE_Hygrothermograph\LIB\libCH57xBLE.a(gattservapp.o)
 .data          0x0000000000000000        0x0 G:\╄    单片机\WCH\CH573\Projects\CH571_BLE_Hygrothermograph\LIB\libCH57xBLE.a(gattservapp.o)
 .bss           0x0000000000000000        0x0 G:\╄    单片机\WCH\CH573\Projects\CH571_BLE_Hygrothermograph\LIB\libCH57xBLE.a(gattservapp.o)
 .text.GATTServApp_FindAttr
                0x0000000000000000       0x1c G:\╄    单片机\WCH\CH573\Projects\CH571_BLE_Hygrothermograph\LIB\libCH57xBLE.a(gattservapp.o)
 .text.GATTServApp_GetParameter
                0x0000000000000000        0xe G:\╄    单片机\WCH\CH573\Projects\CH571_BLE_Hygrothermograph\LIB\libCH57xBLE.a(gattservapp.o)
 .text.gattServApp_SetNumPrepareWrites
                0x0000000000000000       0x3c G:\╄    单片机\WCH\CH573\Projects\CH571_BLE_Hygrothermograph\LIB\libCH57xBLE.a(gattservapp.o)
 .text.GATTServApp_SetParameter
                0x0000000000000000       0x60 G:\╄    单片机\WCH\CH573\Projects\CH571_BLE_Hygrothermograph\LIB\libCH57xBLE.a(gattservapp.o)
 .text.GATT_DeregisterService
                0x0000000000000000       0x5e G:\╄    单片机\WCH\CH573\Projects\CH571_BLE_Hygrothermograph\LIB\libCH57xBLE.a(gattservapp.o)
 .text.GATTServApp_DeregisterService
                0x0000000000000000       0x64 G:\╄    单片机\WCH\CH573\Projects\CH571_BLE_Hygrothermograph\LIB\libCH57xBLE.a(gattservapp.o)
 .text.GATTServApp_UpdateCharCfg
                0x0000000000000000       0x22 G:\╄    单片机\WCH\CH573\Projects\CH571_BLE_Hygrothermograph\LIB\libCH57xBLE.a(gattservapp.o)
 .text.GATT_Notification
                0x0000000000000000       0x88 G:\╄    单片机\WCH\CH573\Projects\CH571_BLE_Hygrothermograph\LIB\libCH57xBLE.a(gattservapp.o)
 .text.gattServApp_SendNotiInd
                0x0000000000000000       0xa4 G:\╄    单片机\WCH\CH573\Projects\CH571_BLE_Hygrothermograph\LIB\libCH57xBLE.a(gattservapp.o)
 .text.GATTServApp_ProcessCharCfg
                0x0000000000000000       0xdc G:\╄    单片机\WCH\CH573\Projects\CH571_BLE_Hygrothermograph\LIB\libCH57xBLE.a(gattservapp.o)
 .text.GATT_RegisterService
                0x0000000000000000      0x10a G:\╄    单片机\WCH\CH573\Projects\CH571_BLE_Hygrothermograph\LIB\libCH57xBLE.a(gattservapp.o)
 .text.GATTServApp_RegisterService
                0x0000000000000000       0x88 G:\╄    单片机\WCH\CH573\Projects\CH571_BLE_Hygrothermograph\LIB\libCH57xBLE.a(gattservapp.o)
 .text.GATTServApp_AddService
                0x0000000000000000       0x38 G:\╄    单片机\WCH\CH573\Projects\CH571_BLE_Hygrothermograph\LIB\libCH57xBLE.a(gattservapp.o)
 .text.GATT_GetNextHandle
                0x0000000000000000        0xa G:\╄    单片机\WCH\CH573\Projects\CH571_BLE_Hygrothermograph\LIB\libCH57xBLE.a(gattservapp.o)
 .text.GATT_RegisterForReq
                0x0000000000000000        0xa G:\╄    单片机\WCH\CH573\Projects\CH571_BLE_Hygrothermograph\LIB\libCH57xBLE.a(gattservapp.o)
 .text.GATTServApp_RegisterForMsg
                0x0000000000000000        0xa G:\╄    单片机\WCH\CH573\Projects\CH571_BLE_Hygrothermograph\LIB\libCH57xBLE.a(gattservapp.o)
 .text          0x0000000000000000        0x0 G:\╄    单片机\WCH\CH573\Projects\CH571_BLE_Hygrothermograph\LIB\libCH57xBLE.a(l2cap.o)
 .data          0x0000000000000000        0x0 G:\╄    单片机\WCH\CH573\Projects\CH571_BLE_Hygrothermograph\LIB\libCH57xBLE.a(l2cap.o)
 .bss           0x0000000000000000        0x0 G:\╄    单片机\WCH\CH573\Projects\CH571_BLE_Hygrothermograph\LIB\libCH57xBLE.a(l2cap.o)
 .text.l2capAllocPsm
                0x0000000000000000       0x46 G:\╄    单片机\WCH\CH573\Projects\CH571_BLE_Hygrothermograph\LIB\libCH57xBLE.a(l2cap.o)
 .text.L2CAP_ChannelInfo
                0x0000000000000000       0x3e G:\╄    单片机\WCH\CH573\Projects\CH571_BLE_Hygrothermograph\LIB\libCH57xBLE.a(l2cap.o)
 .text.L2CAP_DeregisterPsm
                0x0000000000000000       0x42 G:\╄    单片机\WCH\CH573\Projects\CH571_BLE_Hygrothermograph\LIB\libCH57xBLE.a(l2cap.o)
 .text.L2CAP_ParseInfoReq
                0x0000000000000000       0x1e G:\╄    单片机\WCH\CH573\Projects\CH571_BLE_Hygrothermograph\LIB\libCH57xBLE.a(l2cap.o)
 .text.L2CAP_PsmChannels
                0x0000000000000000       0x98 G:\╄    单片机\WCH\CH573\Projects\CH571_BLE_Hygrothermograph\LIB\libCH57xBLE.a(l2cap.o)
 .text.L2CAP_PsmInfo
                0x0000000000000000       0x64 G:\╄    单片机\WCH\CH573\Projects\CH571_BLE_Hygrothermograph\LIB\libCH57xBLE.a(l2cap.o)
 .text.L2CAP_RegisterPsm
                0x0000000000000000       0x78 G:\╄    单片机\WCH\CH573\Projects\CH571_BLE_Hygrothermograph\LIB\libCH57xBLE.a(l2cap.o)
 .text.L2CAP_SetControllerToHostFlowCtrl
                0x0000000000000000       0x54 G:\╄    单片机\WCH\CH573\Projects\CH571_BLE_Hygrothermograph\LIB\libCH57xBLE.a(l2cap.o)
 .text.L2CAP_SetUserConfig
                0x0000000000000000       0x1a G:\╄    单片机\WCH\CH573\Projects\CH571_BLE_Hygrothermograph\LIB\libCH57xBLE.a(l2cap.o)
 .text          0x0000000000000000        0x0 G:\╄    单片机\WCH\CH573\Projects\CH571_BLE_Hygrothermograph\LIB\libCH57xBLE.a(l2cap_input.o)
 .data          0x0000000000000000        0x0 G:\╄    单片机\WCH\CH573\Projects\CH571_BLE_Hygrothermograph\LIB\libCH57xBLE.a(l2cap_input.o)
 .bss           0x0000000000000000        0x0 G:\╄    单片机\WCH\CH573\Projects\CH571_BLE_Hygrothermograph\LIB\libCH57xBLE.a(l2cap_input.o)
 .text          0x0000000000000000        0x0 G:\╄    单片机\WCH\CH573\Projects\CH571_BLE_Hygrothermograph\LIB\libCH57xBLE.a(l2cap_output.o)
 .data          0x0000000000000000        0x0 G:\╄    单片机\WCH\CH573\Projects\CH571_BLE_Hygrothermograph\LIB\libCH57xBLE.a(l2cap_output.o)
 .bss           0x0000000000000000        0x0 G:\╄    单片机\WCH\CH573\Projects\CH571_BLE_Hygrothermograph\LIB\libCH57xBLE.a(l2cap_output.o)
 .text.l2capSendFCPkt
                0x0000000000000000       0x12 G:\╄    单片机\WCH\CH573\Projects\CH571_BLE_Hygrothermograph\LIB\libCH57xBLE.a(l2cap_output.o)
 .text.L2CAP_SendSDU
                0x0000000000000000       0x94 G:\╄    单片机\WCH\CH573\Projects\CH571_BLE_Hygrothermograph\LIB\libCH57xBLE.a(l2cap_output.o)
 .text          0x0000000000000000        0x0 G:\╄    单片机\WCH\CH573\Projects\CH571_BLE_Hygrothermograph\LIB\libCH57xBLE.a(l2cap_sdu.o)
 .data          0x0000000000000000        0x0 G:\╄    单片机\WCH\CH573\Projects\CH571_BLE_Hygrothermograph\LIB\libCH57xBLE.a(l2cap_sdu.o)
 .bss           0x0000000000000000        0x0 G:\╄    单片机\WCH\CH573\Projects\CH571_BLE_Hygrothermograph\LIB\libCH57xBLE.a(l2cap_sdu.o)
 .text.L2CAP_BuildConnectReq
                0x0000000000000000       0x5e G:\╄    单片机\WCH\CH573\Projects\CH571_BLE_Hygrothermograph\LIB\libCH57xBLE.a(l2cap_sdu.o)
 .text.L2CAP_ConnectReq
                0x0000000000000000       0x7e G:\╄    单片机\WCH\CH573\Projects\CH571_BLE_Hygrothermograph\LIB\libCH57xBLE.a(l2cap_sdu.o)
 .text.L2CAP_ConnectRsp
                0x0000000000000000      0x106 G:\╄    单片机\WCH\CH573\Projects\CH571_BLE_Hygrothermograph\LIB\libCH57xBLE.a(l2cap_sdu.o)
 .text          0x0000000000000000        0x0 G:\╄    单片机\WCH\CH573\Projects\CH571_BLE_Hygrothermograph\LIB\libCH57xBLE.a(linkdb.o)
 .data          0x0000000000000000        0x0 G:\╄    单片机\WCH\CH573\Projects\CH571_BLE_Hygrothermograph\LIB\libCH57xBLE.a(linkdb.o)
 .bss           0x0000000000000000        0x0 G:\╄    单片机\WCH\CH573\Projects\CH571_BLE_Hygrothermograph\LIB\libCH57xBLE.a(linkdb.o)
 .text.linkDB_Update
                0x0000000000000000       0x36 G:\╄    单片机\WCH\CH573\Projects\CH571_BLE_Hygrothermograph\LIB\libCH57xBLE.a(linkdb.o)
 .text.linkDB_PeripheralLinkNum
                0x0000000000000000       0x46 G:\╄    单片机\WCH\CH573\Projects\CH571_BLE_Hygrothermograph\LIB\libCH57xBLE.a(linkdb.o)
 .text          0x0000000000000000        0x0 G:\╄    单片机\WCH\CH573\Projects\CH571_BLE_Hygrothermograph\LIB\libCH57xBLE.a(sm.o)
 .data          0x0000000000000000        0x0 G:\╄    单片机\WCH\CH573\Projects\CH571_BLE_Hygrothermograph\LIB\libCH57xBLE.a(sm.o)
 .bss           0x0000000000000000        0x0 G:\╄    单片机\WCH\CH573\Projects\CH571_BLE_Hygrothermograph\LIB\libCH57xBLE.a(sm.o)
 .text.smAuthReqToUint8
                0x0000000000000000        0x6 G:\╄    单片机\WCH\CH573\Projects\CH571_BLE_Hygrothermograph\LIB\libCH57xBLE.a(sm.o)
 .text.smRegisterInitiator
                0x0000000000000000        0xa G:\╄    单片机\WCH\CH573\Projects\CH571_BLE_Hygrothermograph\LIB\libCH57xBLE.a(sm.o)
 .text.smRegisterResponder
                0x0000000000000000        0xa G:\╄    单片机\WCH\CH573\Projects\CH571_BLE_Hygrothermograph\LIB\libCH57xBLE.a(sm.o)
 .text.smUint8ToAuthReq
                0x0000000000000000        0x6 G:\╄    单片机\WCH\CH573\Projects\CH571_BLE_Hygrothermograph\LIB\libCH57xBLE.a(sm.o)
 .text.smpBuildSecurityReq
                0x0000000000000000       0x1a G:\╄    单片机\WCH\CH573\Projects\CH571_BLE_Hygrothermograph\LIB\libCH57xBLE.a(sm.o)
 .text.smpParseSecurityReq
                0x0000000000000000       0x14 G:\╄    单片机\WCH\CH573\Projects\CH571_BLE_Hygrothermograph\LIB\libCH57xBLE.a(sm.o)
 .text.SM_NewRandKey
                0x0000000000000000       0x54 G:\╄    单片机\WCH\CH573\Projects\CH571_BLE_Hygrothermograph\LIB\libCH57xBLE.a(sm.o)
 .text          0x0000000000000000        0x0 G:\╄    单片机\WCH\CH573\Projects\CH571_BLE_Hygrothermograph\LIB\libCH57xBLE.a(host_input.o)
 .data          0x0000000000000000        0x0 G:\╄    单片机\WCH\CH573\Projects\CH571_BLE_Hygrothermograph\LIB\libCH57xBLE.a(host_input.o)
 .bss           0x0000000000000000        0x0 G:\╄    单片机\WCH\CH573\Projects\CH571_BLE_Hygrothermograph\LIB\libCH57xBLE.a(host_input.o)
 .text.HOST_LE_AdvPktReportEvent
                0x0000000000000000       0xa0 G:\╄    单片机\WCH\CH573\Projects\CH571_BLE_Hygrothermograph\LIB\libCH57xBLE.a(host_input.o)
 .text.HOST_LE_ReadLocalPublicKeyCompleteEvent
                0x0000000000000000       0x64 G:\╄    单片机\WCH\CH573\Projects\CH571_BLE_Hygrothermograph\LIB\libCH57xBLE.a(host_input.o)
 .text.HOST_LE_GenerateDHKeyCompleteEvent
                0x0000000000000000       0x64 G:\╄    单片机\WCH\CH573\Projects\CH571_BLE_Hygrothermograph\LIB\libCH57xBLE.a(host_input.o)
 .text.HOST_LE_DirectAdvertisingReportEvent
                0x0000000000000000       0xc2 G:\╄    单片机\WCH\CH573\Projects\CH571_BLE_Hygrothermograph\LIB\libCH57xBLE.a(host_input.o)
 .text.HOST_HardwareErrorEvent
                0x0000000000000000       0x46 G:\╄    单片机\WCH\CH573\Projects\CH571_BLE_Hygrothermograph\LIB\libCH57xBLE.a(host_input.o)
 .text          0x0000000000000000        0x0 G:\╄    单片机\WCH\CH573\Projects\CH571_BLE_Hygrothermograph\LIB\libCH57xBLE.a(host_output.o)
 .data          0x0000000000000000        0x0 G:\╄    单片机\WCH\CH573\Projects\CH571_BLE_Hygrothermograph\LIB\libCH57xBLE.a(host_output.o)
 .bss           0x0000000000000000        0x0 G:\╄    单片机\WCH\CH573\Projects\CH571_BLE_Hygrothermograph\LIB\libCH57xBLE.a(host_output.o)
 .text.HCI_ReadRemoteVersionInfoCmd
                0x0000000000000000        0x8 G:\╄    单片机\WCH\CH573\Projects\CH571_BLE_Hygrothermograph\LIB\libCH57xBLE.a(host_output.o)
 .text.HCI_SetEventMaskCmd
                0x0000000000000000        0x4 G:\╄    单片机\WCH\CH573\Projects\CH571_BLE_Hygrothermograph\LIB\libCH57xBLE.a(host_output.o)
 .text.HCI_ResetCmd
                0x0000000000000000        0x8 G:\╄    单片机\WCH\CH573\Projects\CH571_BLE_Hygrothermograph\LIB\libCH57xBLE.a(host_output.o)
 .text.HCI_SetDataLengthCmd
                0x0000000000000000        0x8 G:\╄    单片机\WCH\CH573\Projects\CH571_BLE_Hygrothermograph\LIB\libCH57xBLE.a(host_output.o)
 .text.HCI_ReadTransmitPowerLevelCmd
                0x0000000000000000        0x8 G:\╄    单片机\WCH\CH573\Projects\CH571_BLE_Hygrothermograph\LIB\libCH57xBLE.a(host_output.o)
 .text.HCI_SetControllerToHostFlowCtrlCmd
                0x0000000000000000        0x8 G:\╄    单片机\WCH\CH573\Projects\CH571_BLE_Hygrothermograph\LIB\libCH57xBLE.a(host_output.o)
 .text.HCI_HostBufferSizeCmd
                0x0000000000000000        0x4 G:\╄    单片机\WCH\CH573\Projects\CH571_BLE_Hygrothermograph\LIB\libCH57xBLE.a(host_output.o)
 .text.HCI_SetEventMaskPage2Cmd
                0x0000000000000000        0x4 G:\╄    单片机\WCH\CH573\Projects\CH571_BLE_Hygrothermograph\LIB\libCH57xBLE.a(host_output.o)
 .text.HCI_ReadLocalSupportedCommandsCmd
                0x0000000000000000        0x8 G:\╄    单片机\WCH\CH573\Projects\CH571_BLE_Hygrothermograph\LIB\libCH57xBLE.a(host_output.o)
 .text.HCI_ReadLocalSupportedFeaturesCmd
                0x0000000000000000        0x8 G:\╄    单片机\WCH\CH573\Projects\CH571_BLE_Hygrothermograph\LIB\libCH57xBLE.a(host_output.o)
 .text.HCI_ReadRssiCmd
                0x0000000000000000        0x8 G:\╄    单片机\WCH\CH573\Projects\CH571_BLE_Hygrothermograph\LIB\libCH57xBLE.a(host_output.o)
 .text.HCI_LE_SetEventMaskCmd
                0x0000000000000000        0x4 G:\╄    单片机\WCH\CH573\Projects\CH571_BLE_Hygrothermograph\LIB\libCH57xBLE.a(host_output.o)
 .text.HCI_LE_ReadLocalSupportedFeaturesCmd
                0x0000000000000000        0x8 G:\╄    单片机\WCH\CH573\Projects\CH571_BLE_Hygrothermograph\LIB\libCH57xBLE.a(host_output.o)
 .text.HCI_LE_SetScanParamCmd
                0x0000000000000000        0x8 G:\╄    单片机\WCH\CH573\Projects\CH571_BLE_Hygrothermograph\LIB\libCH57xBLE.a(host_output.o)
 .text.HCI_LE_CreateConnCmd
                0x0000000000000000       0x20 G:\╄    单片机\WCH\CH573\Projects\CH571_BLE_Hygrothermograph\LIB\libCH57xBLE.a(host_output.o)
 .text.HCI_LE_ReadWhiteListSizeCmd
                0x0000000000000000        0x8 G:\╄    单片机\WCH\CH573\Projects\CH571_BLE_Hygrothermograph\LIB\libCH57xBLE.a(host_output.o)
 .text.HCI_LE_RemoveWhiteListCmd
                0x0000000000000000        0x8 G:\╄    单片机\WCH\CH573\Projects\CH571_BLE_Hygrothermograph\LIB\libCH57xBLE.a(host_output.o)
 .text.HCI_LE_SetHostChanClassificationCmd
                0x0000000000000000        0x8 G:\╄    单片机\WCH\CH573\Projects\CH571_BLE_Hygrothermograph\LIB\libCH57xBLE.a(host_output.o)
 .text.HCI_LE_ReadChannelMapCmd
                0x0000000000000000        0x8 G:\╄    单片机\WCH\CH573\Projects\CH571_BLE_Hygrothermograph\LIB\libCH57xBLE.a(host_output.o)
 .text.HCI_LE_ReadRemoteUsedFeaturesCmd
                0x0000000000000000        0x8 G:\╄    单片机\WCH\CH573\Projects\CH571_BLE_Hygrothermograph\LIB\libCH57xBLE.a(host_output.o)
 .text          0x0000000000000000        0x0 G:\╄    单片机\WCH\CH573\Projects\CH571_BLE_Hygrothermograph\LIB\libCH57xBLE.a(ll_connect.o)
 .data          0x0000000000000000        0x0 G:\╄    单片机\WCH\CH573\Projects\CH571_BLE_Hygrothermograph\LIB\libCH57xBLE.a(ll_connect.o)
 .bss           0x0000000000000000        0x0 G:\╄    单片机\WCH\CH573\Projects\CH571_BLE_Hygrothermograph\LIB\libCH57xBLE.a(ll_connect.o)
 .text.ll_connect_auth_timeout
                0x0000000000000000       0x16 G:\╄    单片机\WCH\CH573\Projects\CH571_BLE_Hygrothermograph\LIB\libCH57xBLE.a(ll_connect.o)
 .text.LL_ConnectEventRegister
                0x0000000000000000        0xa G:\╄    单片机\WCH\CH573\Projects\CH571_BLE_Hygrothermograph\LIB\libCH57xBLE.a(ll_connect.o)
 .text.ll_connect_set_auth_timeout
                0x0000000000000000       0x5e G:\╄    单片机\WCH\CH573\Projects\CH571_BLE_Hygrothermograph\LIB\libCH57xBLE.a(ll_connect.o)
 .text.ll_connect_set_procedure_timeout
                0x0000000000000000       0x44 G:\╄    单片机\WCH\CH573\Projects\CH571_BLE_Hygrothermograph\LIB\libCH57xBLE.a(ll_connect.o)
 .text.ll_connect_set_connect_timeout
                0x0000000000000000       0x44 G:\╄    单片机\WCH\CH573\Projects\CH571_BLE_Hygrothermograph\LIB\libCH57xBLE.a(ll_connect.o)
 .text.ll_connect_init_dataLen
                0x0000000000000000       0x88 G:\╄    单片机\WCH\CH573\Projects\CH571_BLE_Hygrothermograph\LIB\libCH57xBLE.a(ll_connect.o)
 .text.ll_connect_init_pingOffset
                0x0000000000000000       0x2e G:\╄    单片机\WCH\CH573\Projects\CH571_BLE_Hygrothermograph\LIB\libCH57xBLE.a(ll_connect.o)
 .text.ll_connect_parse_datapdu_head
                0x0000000000000000       0x34 G:\╄    单片机\WCH\CH573\Projects\CH571_BLE_Hygrothermograph\LIB\libCH57xBLE.a(ll_connect.o)
 .text.ll_connect_send_data
                0x0000000000000000      0x10e G:\╄    单片机\WCH\CH573\Projects\CH571_BLE_Hygrothermograph\LIB\libCH57xBLE.a(ll_connect.o)
 .text.ll_connect_flowcontrol_init
                0x0000000000000000        0xc G:\╄    单片机\WCH\CH573\Projects\CH571_BLE_Hygrothermograph\LIB\libCH57xBLE.a(ll_connect.o)
 .text.LL_ConnectFlowcontrolTx
                0x0000000000000000       0x28 G:\╄    单片机\WCH\CH573\Projects\CH571_BLE_Hygrothermograph\LIB\libCH57xBLE.a(ll_connect.o)
 .text.LL_ConnectFlowcontrolRx
                0x0000000000000000       0x28 G:\╄    单片机\WCH\CH573\Projects\CH571_BLE_Hygrothermograph\LIB\libCH57xBLE.a(ll_connect.o)
 .text.LL_ConnectTxPktnumIncrease
                0x0000000000000000       0x50 G:\╄    单片机\WCH\CH573\Projects\CH571_BLE_Hygrothermograph\LIB\libCH57xBLE.a(ll_connect.o)
 .text.LL_ConnectRxPktnumIncrease
                0x0000000000000000       0x3e G:\╄    单片机\WCH\CH573\Projects\CH571_BLE_Hygrothermograph\LIB\libCH57xBLE.a(ll_connect.o)
 .text.ll_connect_get_master_number
                0x0000000000000000       0x1c G:\╄    单片机\WCH\CH573\Projects\CH571_BLE_Hygrothermograph\LIB\libCH57xBLE.a(ll_connect.o)
 .text.ll_connect_get_update_point
                0x0000000000000000       0x86 G:\╄    单片机\WCH\CH573\Projects\CH571_BLE_Hygrothermograph\LIB\libCH57xBLE.a(ll_connect.o)
 .text.ll_connect_get_start_point
                0x0000000000000000      0x13c G:\╄    单片机\WCH\CH573\Projects\CH571_BLE_Hygrothermograph\LIB\libCH57xBLE.a(ll_connect.o)
 .text.ll_master_check_connect_point
                0x0000000000000000       0xfc G:\╄    单片机\WCH\CH573\Projects\CH571_BLE_Hygrothermograph\LIB\libCH57xBLE.a(ll_connect.o)
 .text.ll_slave_check_connect_point
                0x0000000000000000      0x1d6 G:\╄    单片机\WCH\CH573\Projects\CH571_BLE_Hygrothermograph\LIB\libCH57xBLE.a(ll_connect.o)
 .text.ll_connect_change_connect_point
                0x0000000000000000      0x232 G:\╄    单片机\WCH\CH573\Projects\CH571_BLE_Hygrothermograph\LIB\libCH57xBLE.a(ll_connect.o)
 .highcode      0x0000000000000000      0x13c G:\╄    单片机\WCH\CH573\Projects\CH571_BLE_Hygrothermograph\LIB\libCH57xBLE.a(ll_connect.o)
 .text.ll_connect_recv_data
                0x0000000000000000       0xa8 G:\╄    单片机\WCH\CH573\Projects\CH571_BLE_Hygrothermograph\LIB\libCH57xBLE.a(ll_connect.o)
 .text.LL_GetNumberOfUnAckPacket
                0x0000000000000000       0x26 G:\╄    单片机\WCH\CH573\Projects\CH571_BLE_Hygrothermograph\LIB\libCH57xBLE.a(ll_connect.o)
 .text.LL_ConnectFreeTmosPrioritID
                0x0000000000000000       0xe6 G:\╄    单片机\WCH\CH573\Projects\CH571_BLE_Hygrothermograph\LIB\libCH57xBLE.a(ll_connect.o)
 .text.ll_connect_action_in_connintervaltimeout
                0x0000000000000000      0x358 G:\╄    单片机\WCH\CH573\Projects\CH571_BLE_Hygrothermograph\LIB\libCH57xBLE.a(ll_connect.o)
 .text.ll_connect_procedure_timeout
                0x0000000000000000       0x2e G:\╄    单片机\WCH\CH573\Projects\CH571_BLE_Hygrothermograph\LIB\libCH57xBLE.a(ll_connect.o)
 .text.ll_connect_supervision_timeout
                0x0000000000000000       0x38 G:\╄    单片机\WCH\CH573\Projects\CH571_BLE_Hygrothermograph\LIB\libCH57xBLE.a(ll_connect.o)
 .text.ll_connect_process_event
                0x0000000000000000      0x4d2 G:\╄    单片机\WCH\CH573\Projects\CH571_BLE_Hygrothermograph\LIB\libCH57xBLE.a(ll_connect.o)
 .text          0x0000000000000000        0x0 G:\╄    单片机\WCH\CH573\Projects\CH571_BLE_Hygrothermograph\LIB\libCH57xBLE.a(ll_core.o)
 .data          0x0000000000000000        0x0 G:\╄    单片机\WCH\CH573\Projects\CH571_BLE_Hygrothermograph\LIB\libCH57xBLE.a(ll_core.o)
 .bss           0x0000000000000000        0x0 G:\╄    单片机\WCH\CH573\Projects\CH571_BLE_Hygrothermograph\LIB\libCH57xBLE.a(ll_core.o)
 .text.LL_CoreDataListInit
                0x0000000000000000       0xa0 G:\╄    单片机\WCH\CH573\Projects\CH571_BLE_Hygrothermograph\LIB\libCH57xBLE.a(ll_core.o)
 .text.LL_CoreOpen
                0x0000000000000000       0xce G:\╄    单片机\WCH\CH573\Projects\CH571_BLE_Hygrothermograph\LIB\libCH57xBLE.a(ll_core.o)
 .text          0x0000000000000000        0x0 G:\╄    单片机\WCH\CH573\Projects\CH571_BLE_Hygrothermograph\LIB\libCH57xBLE.a(ll_hop.o)
 .data          0x0000000000000000        0x0 G:\╄    单片机\WCH\CH573\Projects\CH571_BLE_Hygrothermograph\LIB\libCH57xBLE.a(ll_hop.o)
 .bss           0x0000000000000000        0x0 G:\╄    单片机\WCH\CH573\Projects\CH571_BLE_Hygrothermograph\LIB\libCH57xBLE.a(ll_hop.o)
 .text.LL_HopAtleastTwoChannels
                0x0000000000000000       0x40 G:\╄    单片机\WCH\CH573\Projects\CH571_BLE_Hygrothermograph\LIB\libCH57xBLE.a(ll_hop.o)
 .text.LL_HopGetChannel
                0x0000000000000000       0xe6 G:\╄    单片机\WCH\CH573\Projects\CH571_BLE_Hygrothermograph\LIB\libCH57xBLE.a(ll_hop.o)
 .text.LL_HopInit
                0x0000000000000000        0x6 G:\╄    单片机\WCH\CH573\Projects\CH571_BLE_Hygrothermograph\LIB\libCH57xBLE.a(ll_hop.o)
 .comment       0x0000000000000000       0x34 G:\╄    单片机\WCH\CH573\Projects\CH571_BLE_Hygrothermograph\LIB\libCH57xBLE.a(ll_hop.o)
 .text          0x0000000000000000        0x0 G:\╄    单片机\WCH\CH573\Projects\CH571_BLE_Hygrothermograph\LIB\libCH57xBLE.a(ll_master.o)
 .data          0x0000000000000000        0x0 G:\╄    单片机\WCH\CH573\Projects\CH571_BLE_Hygrothermograph\LIB\libCH57xBLE.a(ll_master.o)
 .bss           0x0000000000000000        0x0 G:\╄    单片机\WCH\CH573\Projects\CH571_BLE_Hygrothermograph\LIB\libCH57xBLE.a(ll_master.o)
 .text.ll_master_process_after_rx
                0x0000000000000000      0x3ae G:\╄    单片机\WCH\CH573\Projects\CH571_BLE_Hygrothermograph\LIB\libCH57xBLE.a(ll_master.o)
 .text.ll_master_action_tx_ready
                0x0000000000000000      0x5ca G:\╄    单片机\WCH\CH573\Projects\CH571_BLE_Hygrothermograph\LIB\libCH57xBLE.a(ll_master.o)
 .text.ll_master_process
                0x0000000000000000      0xaca G:\╄    单片机\WCH\CH573\Projects\CH571_BLE_Hygrothermograph\LIB\libCH57xBLE.a(ll_master.o)
 .text.LL_MasterSetFirstTimer
                0x0000000000000000      0x140 G:\╄    单片机\WCH\CH573\Projects\CH571_BLE_Hygrothermograph\LIB\libCH57xBLE.a(ll_master.o)
 .text.LL_MasterCreateCore
                0x0000000000000000      0x162 G:\╄    单片机\WCH\CH573\Projects\CH571_BLE_Hygrothermograph\LIB\libCH57xBLE.a(ll_master.o)
 .text.LL_MasterEnalbe
                0x0000000000000000       0x18 G:\╄    单片机\WCH\CH573\Projects\CH571_BLE_Hygrothermograph\LIB\libCH57xBLE.a(ll_master.o)
 .comment       0x0000000000000000       0x34 G:\╄    单片机\WCH\CH573\Projects\CH571_BLE_Hygrothermograph\LIB\libCH57xBLE.a(ll_master.o)
 .text          0x0000000000000000        0x0 G:\╄    单片机\WCH\CH573\Projects\CH571_BLE_Hygrothermograph\LIB\libCH57xBLE.a(ll_pdu.o)
 .data          0x0000000000000000        0x0 G:\╄    单片机\WCH\CH573\Projects\CH571_BLE_Hygrothermograph\LIB\libCH57xBLE.a(ll_pdu.o)
 .bss           0x0000000000000000        0x0 G:\╄    单片机\WCH\CH573\Projects\CH571_BLE_Hygrothermograph\LIB\libCH57xBLE.a(ll_pdu.o)
 .text.LL_ConnectionUpdateReq
                0x0000000000000000       0xbc G:\╄    单片机\WCH\CH573\Projects\CH571_BLE_Hygrothermograph\LIB\libCH57xBLE.a(ll_pdu.o)
 .text.LL_ChannelMapReq
                0x0000000000000000       0x68 G:\╄    单片机\WCH\CH573\Projects\CH571_BLE_Hygrothermograph\LIB\libCH57xBLE.a(ll_pdu.o)
 .text.LL_TerminateInd
                0x0000000000000000       0x34 G:\╄    单片机\WCH\CH573\Projects\CH571_BLE_Hygrothermograph\LIB\libCH57xBLE.a(ll_pdu.o)
 .text.LL_EncReq
                0x0000000000000000       0x8c G:\╄    单片机\WCH\CH573\Projects\CH571_BLE_Hygrothermograph\LIB\libCH57xBLE.a(ll_pdu.o)
 .text.LL_EncRsp
                0x0000000000000000       0x58 G:\╄    单片机\WCH\CH573\Projects\CH571_BLE_Hygrothermograph\LIB\libCH57xBLE.a(ll_pdu.o)
 .text.LL_StartEncReq
                0x0000000000000000       0x22 G:\╄    单片机\WCH\CH573\Projects\CH571_BLE_Hygrothermograph\LIB\libCH57xBLE.a(ll_pdu.o)
 .text.LL_StartEncRsp
                0x0000000000000000       0x22 G:\╄    单片机\WCH\CH573\Projects\CH571_BLE_Hygrothermograph\LIB\libCH57xBLE.a(ll_pdu.o)
 .text.LL_UnknowRsp
                0x0000000000000000       0x26 G:\╄    单片机\WCH\CH573\Projects\CH571_BLE_Hygrothermograph\LIB\libCH57xBLE.a(ll_pdu.o)
 .text.LL_FeatureReq
                0x0000000000000000       0x50 G:\╄    单片机\WCH\CH573\Projects\CH571_BLE_Hygrothermograph\LIB\libCH57xBLE.a(ll_pdu.o)
 .text.LL_FeatureRsp
                0x0000000000000000       0x42 G:\╄    单片机\WCH\CH573\Projects\CH571_BLE_Hygrothermograph\LIB\libCH57xBLE.a(ll_pdu.o)
 .text.LL_PauseEncReq
                0x0000000000000000       0x2e G:\╄    单片机\WCH\CH573\Projects\CH571_BLE_Hygrothermograph\LIB\libCH57xBLE.a(ll_pdu.o)
 .text.LL_PauseEncRsp
                0x0000000000000000       0x22 G:\╄    单片机\WCH\CH573\Projects\CH571_BLE_Hygrothermograph\LIB\libCH57xBLE.a(ll_pdu.o)
 .text.LL_VersionInd
                0x0000000000000000       0x8c G:\╄    单片机\WCH\CH573\Projects\CH571_BLE_Hygrothermograph\LIB\libCH57xBLE.a(ll_pdu.o)
 .text.LL_RejectInd
                0x0000000000000000       0x26 G:\╄    单片机\WCH\CH573\Projects\CH571_BLE_Hygrothermograph\LIB\libCH57xBLE.a(ll_pdu.o)
 .text.LL_SlaveFeatureReq
                0x0000000000000000       0x50 G:\╄    单片机\WCH\CH573\Projects\CH571_BLE_Hygrothermograph\LIB\libCH57xBLE.a(ll_pdu.o)
 .text.LL_ConnectionParamReq
                0x0000000000000000       0xac G:\╄    单片机\WCH\CH573\Projects\CH571_BLE_Hygrothermograph\LIB\libCH57xBLE.a(ll_pdu.o)
 .text.LL_ConnectionParamRsp
                0x0000000000000000       0xa0 G:\╄    单片机\WCH\CH573\Projects\CH571_BLE_Hygrothermograph\LIB\libCH57xBLE.a(ll_pdu.o)
 .text.LL_RejectIndExt
                0x0000000000000000       0x26 G:\╄    单片机\WCH\CH573\Projects\CH571_BLE_Hygrothermograph\LIB\libCH57xBLE.a(ll_pdu.o)
 .text.LL_PingReq
                0x0000000000000000       0x2e G:\╄    单片机\WCH\CH573\Projects\CH571_BLE_Hygrothermograph\LIB\libCH57xBLE.a(ll_pdu.o)
 .text.LL_PingRsp
                0x0000000000000000       0x1a G:\╄    单片机\WCH\CH573\Projects\CH571_BLE_Hygrothermograph\LIB\libCH57xBLE.a(ll_pdu.o)
 .text.LL_LengthReq
                0x0000000000000000       0x82 G:\╄    单片机\WCH\CH573\Projects\CH571_BLE_Hygrothermograph\LIB\libCH57xBLE.a(ll_pdu.o)
 .text.LL_LengthRsp
                0x0000000000000000       0x6e G:\╄    单片机\WCH\CH573\Projects\CH571_BLE_Hygrothermograph\LIB\libCH57xBLE.a(ll_pdu.o)
 .text.LL_SendAck
                0x0000000000000000       0x1c G:\╄    单片机\WCH\CH573\Projects\CH571_BLE_Hygrothermograph\LIB\libCH57xBLE.a(ll_pdu.o)
 .text.LL_RxConnParamReq
                0x0000000000000000       0xf8 G:\╄    单片机\WCH\CH573\Projects\CH571_BLE_Hygrothermograph\LIB\libCH57xBLE.a(ll_pdu.o)
 .text.LL_RxConnParamRsp
                0x0000000000000000       0xd2 G:\╄    单片机\WCH\CH573\Projects\CH571_BLE_Hygrothermograph\LIB\libCH57xBLE.a(ll_pdu.o)
 .text.LL_RxLenUpdate
                0x0000000000000000       0xd2 G:\╄    单片机\WCH\CH573\Projects\CH571_BLE_Hygrothermograph\LIB\libCH57xBLE.a(ll_pdu.o)
 .text.LL_RxVersionExchange
                0x0000000000000000       0x2e G:\╄    单片机\WCH\CH573\Projects\CH571_BLE_Hygrothermograph\LIB\libCH57xBLE.a(ll_pdu.o)
 .comment       0x0000000000000000       0x34 G:\╄    单片机\WCH\CH573\Projects\CH571_BLE_Hygrothermograph\LIB\libCH57xBLE.a(ll_pdu.o)
 .text          0x0000000000000000        0x0 G:\╄    单片机\WCH\CH573\Projects\CH571_BLE_Hygrothermograph\LIB\libCH57xBLE.a(ll_report.o)
 .data          0x0000000000000000        0x0 G:\╄    单片机\WCH\CH573\Projects\CH571_BLE_Hygrothermograph\LIB\libCH57xBLE.a(ll_report.o)
 .bss           0x0000000000000000        0x0 G:\╄    单片机\WCH\CH573\Projects\CH571_BLE_Hygrothermograph\LIB\libCH57xBLE.a(ll_report.o)
 .text          0x0000000000000000        0x0 G:\╄    单片机\WCH\CH573\Projects\CH571_BLE_Hygrothermograph\LIB\libCH57xBLE.a(ll_scan.o)
 .data          0x0000000000000000        0x0 G:\╄    单片机\WCH\CH573\Projects\CH571_BLE_Hygrothermograph\LIB\libCH57xBLE.a(ll_scan.o)
 .bss           0x0000000000000000        0x0 G:\╄    单片机\WCH\CH573\Projects\CH571_BLE_Hygrothermograph\LIB\libCH57xBLE.a(ll_scan.o)
 .text.llScanTraverseaChannel
                0x0000000000000000       0xe2 G:\╄    单片机\WCH\CH573\Projects\CH571_BLE_Hygrothermograph\LIB\libCH57xBLE.a(ll_scan.o)
 .text.llScanSet
                0x0000000000000000      0x152 G:\╄    单片机\WCH\CH573\Projects\CH571_BLE_Hygrothermograph\LIB\libCH57xBLE.a(ll_scan.o)
 .text.llScanCreateCore
                0x0000000000000000       0x7a G:\╄    单片机\WCH\CH573\Projects\CH571_BLE_Hygrothermograph\LIB\libCH57xBLE.a(ll_scan.o)
 .text.llScanStart
                0x0000000000000000       0x94 G:\╄    单片机\WCH\CH573\Projects\CH571_BLE_Hygrothermograph\LIB\libCH57xBLE.a(ll_scan.o)
 .text.ll_scan_filter
                0x0000000000000000      0x152 G:\╄    单片机\WCH\CH573\Projects\CH571_BLE_Hygrothermograph\LIB\libCH57xBLE.a(ll_scan.o)
 .text.ll_scan_whitelist
                0x0000000000000000       0x32 G:\╄    单片机\WCH\CH573\Projects\CH571_BLE_Hygrothermograph\LIB\libCH57xBLE.a(ll_scan.o)
 .text.ll_scan_add_advertising_to_report
                0x0000000000000000      0x14a G:\╄    单片机\WCH\CH573\Projects\CH571_BLE_Hygrothermograph\LIB\libCH57xBLE.a(ll_scan.o)
 .text.ll_scan_remove_all_report
                0x0000000000000000       0x26 G:\╄    单片机\WCH\CH573\Projects\CH571_BLE_Hygrothermograph\LIB\libCH57xBLE.a(ll_scan.o)
 .text.ll_scan_rx
                0x0000000000000000      0x2c2 G:\╄    单片机\WCH\CH573\Projects\CH571_BLE_Hygrothermograph\LIB\libCH57xBLE.a(ll_scan.o)
 .text.ll_scan_process
                0x0000000000000000      0x198 G:\╄    单片机\WCH\CH573\Projects\CH571_BLE_Hygrothermograph\LIB\libCH57xBLE.a(ll_scan.o)
 .text.LL_ScanShut
                0x0000000000000000       0x30 G:\╄    单片机\WCH\CH573\Projects\CH571_BLE_Hygrothermograph\LIB\libCH57xBLE.a(ll_scan.o)
 .text.LL_ScanEnable
                0x0000000000000000       0x68 G:\╄    单片机\WCH\CH573\Projects\CH571_BLE_Hygrothermograph\LIB\libCH57xBLE.a(ll_scan.o)
 .text          0x0000000000000000        0x0 G:\╄    单片机\WCH\CH573\Projects\CH571_BLE_Hygrothermograph\LIB\libCH57xBLE.a(ll_slave.o)
 .data          0x0000000000000000        0x0 G:\╄    单片机\WCH\CH573\Projects\CH571_BLE_Hygrothermograph\LIB\libCH57xBLE.a(ll_slave.o)
 .bss           0x0000000000000000        0x0 G:\╄    单片机\WCH\CH573\Projects\CH571_BLE_Hygrothermograph\LIB\libCH57xBLE.a(ll_slave.o)
 .text.ll_slave_process_after_tx
                0x0000000000000000      0x414 G:\╄    单片机\WCH\CH573\Projects\CH571_BLE_Hygrothermograph\LIB\libCH57xBLE.a(ll_slave.o)
 .text.llSlaveCreateCore
                0x0000000000000000      0x112 G:\╄    单片机\WCH\CH573\Projects\CH571_BLE_Hygrothermograph\LIB\libCH57xBLE.a(ll_slave.o)
 .text.llSlaveSetFirstTimer
                0x0000000000000000      0x1f6 G:\╄    单片机\WCH\CH573\Projects\CH571_BLE_Hygrothermograph\LIB\libCH57xBLE.a(ll_slave.o)
 .text.ll_hw_timer_slave_recv_timeout
                0x0000000000000000       0x26 G:\╄    单片机\WCH\CH573\Projects\CH571_BLE_Hygrothermograph\LIB\libCH57xBLE.a(ll_slave.o)
 .text.ll_slave_process
                0x0000000000000000     0x1246 G:\╄    单片机\WCH\CH573\Projects\CH571_BLE_Hygrothermograph\LIB\libCH57xBLE.a(ll_slave.o)
 .text.LL_SlaveEnalbe
                0x0000000000000000       0x2e G:\╄    单片机\WCH\CH573\Projects\CH571_BLE_Hygrothermograph\LIB\libCH57xBLE.a(ll_slave.o)
 .rodata.SCA    0x0000000000000000       0x10 G:\╄    单片机\WCH\CH573\Projects\CH571_BLE_Hygrothermograph\LIB\libCH57xBLE.a(ll_slave.o)
 .sbss.CrcErrorCount
                0x0000000000000000        0x2 G:\╄    单片机\WCH\CH573\Projects\CH571_BLE_Hygrothermograph\LIB\libCH57xBLE.a(ll_slave.o)
 .sbss.md_timeout
                0x0000000000000000        0x2 G:\╄    单片机\WCH\CH573\Projects\CH571_BLE_Hygrothermograph\LIB\libCH57xBLE.a(ll_slave.o)
 .sbss.reSendCount
                0x0000000000000000        0x2 G:\╄    单片机\WCH\CH573\Projects\CH571_BLE_Hygrothermograph\LIB\libCH57xBLE.a(ll_slave.o)
 .sbss.recvTimeoutCount
                0x0000000000000000        0x2 G:\╄    单片机\WCH\CH573\Projects\CH571_BLE_Hygrothermograph\LIB\libCH57xBLE.a(ll_slave.o)
 .comment       0x0000000000000000       0x34 G:\╄    单片机\WCH\CH573\Projects\CH571_BLE_Hygrothermograph\LIB\libCH57xBLE.a(ll_slave.o)
 .text          0x0000000000000000        0x0 G:\╄    单片机\WCH\CH573\Projects\CH571_BLE_Hygrothermograph\LIB\libCH57xBLE.a(ll_whitelist.o)
 .data          0x0000000000000000        0x0 G:\╄    单片机\WCH\CH573\Projects\CH571_BLE_Hygrothermograph\LIB\libCH57xBLE.a(ll_whitelist.o)
 .bss           0x0000000000000000        0x0 G:\╄    单片机\WCH\CH573\Projects\CH571_BLE_Hygrothermograph\LIB\libCH57xBLE.a(ll_whitelist.o)
 .text.LL_WhitelistRemove
                0x0000000000000000       0x92 G:\╄    单片机\WCH\CH573\Projects\CH571_BLE_Hygrothermograph\LIB\libCH57xBLE.a(ll_whitelist.o)
 .text          0x0000000000000000        0x0 G:\╄    单片机\WCH\CH573\Projects\CH571_BLE_Hygrothermograph\LIB\libCH57xBLE.a(aes.o)
 .data          0x0000000000000000        0x0 G:\╄    单片机\WCH\CH573\Projects\CH571_BLE_Hygrothermograph\LIB\libCH57xBLE.a(aes.o)
 .bss           0x0000000000000000        0x0 G:\╄    单片机\WCH\CH573\Projects\CH571_BLE_Hygrothermograph\LIB\libCH57xBLE.a(aes.o)
 .text.AES_DevAESDec
                0x0000000000000000      0x1ae G:\╄    单片机\WCH\CH573\Projects\CH571_BLE_Hygrothermograph\LIB\libCH57xBLE.a(aes.o)
 .text.LL_Decrypt
                0x0000000000000000       0x14 G:\╄    单片机\WCH\CH573\Projects\CH571_BLE_Hygrothermograph\LIB\libCH57xBLE.a(aes.o)
 .text.AES_DevPktEnc
                0x0000000000000000       0x66 G:\╄    单片机\WCH\CH573\Projects\CH571_BLE_Hygrothermograph\LIB\libCH57xBLE.a(aes.o)
 .text.AES_DevPktDec
                0x0000000000000000       0x72 G:\╄    单片机\WCH\CH573\Projects\CH571_BLE_Hygrothermograph\LIB\libCH57xBLE.a(aes.o)
 .text          0x0000000000000000        0x0 G:\╄    单片机\WCH\CH573\Projects\CH571_BLE_Hygrothermograph\LIB\libCH57xBLE.a(bb.o)
 .data          0x0000000000000000        0x0 G:\╄    单片机\WCH\CH573\Projects\CH571_BLE_Hygrothermograph\LIB\libCH57xBLE.a(bb.o)
 .bss           0x0000000000000000        0x0 G:\╄    单片机\WCH\CH573\Projects\CH571_BLE_Hygrothermograph\LIB\libCH57xBLE.a(bb.o)
 .text.BLE_ReadRssi
                0x0000000000000000       0x14 G:\╄    单片机\WCH\CH573\Projects\CH571_BLE_Hygrothermograph\LIB\libCH57xBLE.a(bb.o)
 .text          0x0000000000000000        0x0 G:\╄    单片机\WCH\CH573\Projects\CH571_BLE_Hygrothermograph\LIB\libCH57xBLE.a(dma.o)
 .data          0x0000000000000000        0x0 G:\╄    单片机\WCH\CH573\Projects\CH571_BLE_Hygrothermograph\LIB\libCH57xBLE.a(dma.o)
 .bss           0x0000000000000000        0x0 G:\╄    单片机\WCH\CH573\Projects\CH571_BLE_Hygrothermograph\LIB\libCH57xBLE.a(dma.o)
 .text          0x0000000000000000        0x0 G:\╄    单片机\WCH\CH573\Projects\CH571_BLE_Hygrothermograph\LIB\libCH57xBLE.a(ip.o)
 .data          0x0000000000000000        0x0 G:\╄    单片机\WCH\CH573\Projects\CH571_BLE_Hygrothermograph\LIB\libCH57xBLE.a(ip.o)
 .bss           0x0000000000000000        0x0 G:\╄    单片机\WCH\CH573\Projects\CH571_BLE_Hygrothermograph\LIB\libCH57xBLE.a(ip.o)
 .text.ll_rx_wait_pkt_recv
                0x0000000000000000       0x28 G:\╄    单片机\WCH\CH573\Projects\CH571_BLE_Hygrothermograph\LIB\libCH57xBLE.a(ip.o)
 .text.BLE_ReadCfo
                0x0000000000000000        0xe G:\╄    单片机\WCH\CH573\Projects\CH571_BLE_Hygrothermograph\LIB\libCH57xBLE.a(ip.o)
 .text.GetTxPower
                0x0000000000000000       0x1c G:\╄    单片机\WCH\CH573\Projects\CH571_BLE_Hygrothermograph\LIB\libCH57xBLE.a(ip.o)
 .text.ll_hw_api_rx_direct_test
                0x0000000000000000       0x9c G:\╄    单片机\WCH\CH573\Projects\CH571_BLE_Hygrothermograph\LIB\libCH57xBLE.a(ip.o)
 .text.BLE_PAControlInit
                0x0000000000000000       0x20 G:\╄    单片机\WCH\CH573\Projects\CH571_BLE_Hygrothermograph\LIB\libCH57xBLE.a(ip.o)
 .text.BLE_AccessAddressGenerate
                0x0000000000000000       0xbe G:\╄    单片机\WCH\CH573\Projects\CH571_BLE_Hygrothermograph\LIB\libCH57xBLE.a(ip.o)
 .rodata.TX_POWER
                0x0000000000000000       0x20 G:\╄    单片机\WCH\CH573\Projects\CH571_BLE_Hygrothermograph\LIB\libCH57xBLE.a(ip.o)
 .text          0x0000000000000000        0x0 G:\╄    单片机\WCH\CH573\Projects\CH571_BLE_Hygrothermograph\LIB\libCH57xBLE.a(lle.o)
 .data          0x0000000000000000        0x0 G:\╄    单片机\WCH\CH573\Projects\CH571_BLE_Hygrothermograph\LIB\libCH57xBLE.a(lle.o)
 .bss           0x0000000000000000        0x0 G:\╄    单片机\WCH\CH573\Projects\CH571_BLE_Hygrothermograph\LIB\libCH57xBLE.a(lle.o)
 .text          0x0000000000000000        0x0 G:\╄    单片机\WCH\CH573\Projects\CH571_BLE_Hygrothermograph\LIB\libCH57xBLE.a(rf_fh.o)
 .data          0x0000000000000000        0x0 G:\╄    单片机\WCH\CH573\Projects\CH571_BLE_Hygrothermograph\LIB\libCH57xBLE.a(rf_fh.o)
 .bss           0x0000000000000000        0x0 G:\╄    单片机\WCH\CH573\Projects\CH571_BLE_Hygrothermograph\LIB\libCH57xBLE.a(rf_fh.o)
 .text.RF_FrequencyHoppingGet
                0x0000000000000000       0xbc G:\╄    单片机\WCH\CH573\Projects\CH571_BLE_Hygrothermograph\LIB\libCH57xBLE.a(rf_fh.o)
 .text.rfStop   0x0000000000000000       0x28 G:\╄    单片机\WCH\CH573\Projects\CH571_BLE_Hygrothermograph\LIB\libCH57xBLE.a(rf_fh.o)
 .text.RF_TxProcess
                0x0000000000000000      0x15a G:\╄    单片机\WCH\CH573\Projects\CH571_BLE_Hygrothermograph\LIB\libCH57xBLE.a(rf_fh.o)
 .text.RF_BondingErase
                0x0000000000000000       0x58 G:\╄    单片机\WCH\CH573\Projects\CH571_BLE_Hygrothermograph\LIB\libCH57xBLE.a(rf_fh.o)
 .text.RF_Config
                0x0000000000000000      0x12e G:\╄    单片机\WCH\CH573\Projects\CH571_BLE_Hygrothermograph\LIB\libCH57xBLE.a(rf_fh.o)
 .text.RF_Tx    0x0000000000000000      0x2c4 G:\╄    单片机\WCH\CH573\Projects\CH571_BLE_Hygrothermograph\LIB\libCH57xBLE.a(rf_fh.o)
 .text.RF_FrequencyHoppingTx
                0x0000000000000000      0x3ba G:\╄    单片机\WCH\CH573\Projects\CH571_BLE_Hygrothermograph\LIB\libCH57xBLE.a(rf_fh.o)
 .text.RF_RxProcess
                0x0000000000000000      0x3ea G:\╄    单片机\WCH\CH573\Projects\CH571_BLE_Hygrothermograph\LIB\libCH57xBLE.a(rf_fh.o)
 .text.RF_Shut  0x0000000000000000       0x9c G:\╄    单片机\WCH\CH573\Projects\CH571_BLE_Hygrothermograph\LIB\libCH57xBLE.a(rf_fh.o)
 .text.RF_FrequencyHoppingShut
                0x0000000000000000       0x92 G:\╄    单片机\WCH\CH573\Projects\CH571_BLE_Hygrothermograph\LIB\libCH57xBLE.a(rf_fh.o)
 .text.rf_hop_heart_beat
                0x0000000000000000      0x128 G:\╄    单片机\WCH\CH573\Projects\CH571_BLE_Hygrothermograph\LIB\libCH57xBLE.a(rf_fh.o)
 .text.RFFH_ProcessEvent
                0x0000000000000000      0x110 G:\╄    单片机\WCH\CH573\Projects\CH571_BLE_Hygrothermograph\LIB\libCH57xBLE.a(rf_fh.o)
 .text.RF_FrequencyHoppingRx
                0x0000000000000000      0x3b2 G:\╄    单片机\WCH\CH573\Projects\CH571_BLE_Hygrothermograph\LIB\libCH57xBLE.a(rf_fh.o)
 .text.RF_SetChannel
                0x0000000000000000       0x56 G:\╄    单片机\WCH\CH573\Projects\CH571_BLE_Hygrothermograph\LIB\libCH57xBLE.a(rf_fh.o)
 .text.RF_RoleInit
                0x0000000000000000       0x58 G:\╄    单片机\WCH\CH573\Projects\CH571_BLE_Hygrothermograph\LIB\libCH57xBLE.a(rf_fh.o)
 .rodata.RF_FrequencyHoppingTx.str1.4
                0x0000000000000000        0x7 G:\╄    单片机\WCH\CH573\Projects\CH571_BLE_Hygrothermograph\LIB\libCH57xBLE.a(rf_fh.o)
 .text          0x0000000000000000        0x0 G:\╄    单片机\WCH\CH573\Projects\CH571_BLE_Hygrothermograph\LIB\libCH57xBLE.a(rfend.o)
 .data          0x0000000000000000        0x0 G:\╄    单片机\WCH\CH573\Projects\CH571_BLE_Hygrothermograph\LIB\libCH57xBLE.a(rfend.o)
 .bss           0x0000000000000000        0x0 G:\╄    单片机\WCH\CH573\Projects\CH571_BLE_Hygrothermograph\LIB\libCH57xBLE.a(rfend.o)
 .text.RFEND_SetDACREF_TUNE
                0x0000000000000000       0x20 G:\╄    单片机\WCH\CH573\Projects\CH571_BLE_Hygrothermograph\LIB\libCH57xBLE.a(rfend.o)
 .text.RFEND_GetDACREF_TUNE
                0x0000000000000000       0x12 G:\╄    单片机\WCH\CH573\Projects\CH571_BLE_Hygrothermograph\LIB\libCH57xBLE.a(rfend.o)
 .text.RFEND_SetSensitivity
                0x0000000000000000       0x9a G:\╄    单片机\WCH\CH573\Projects\CH571_BLE_Hygrothermograph\LIB\libCH57xBLE.a(rfend.o)
 .text.RFEND_SetAdcMode
                0x0000000000000000        0xa G:\╄    单片机\WCH\CH573\Projects\CH571_BLE_Hygrothermograph\LIB\libCH57xBLE.a(rfend.o)
 .text.RFEND_TXCtuneSet
                0x0000000000000000       0x7e G:\╄    单片机\WCH\CH573\Projects\CH571_BLE_Hygrothermograph\LIB\libCH57xBLE.a(rfend.o)
 .text.RFEND_TXCtuneGet
                0x0000000000000000       0x70 G:\╄    单片机\WCH\CH573\Projects\CH571_BLE_Hygrothermograph\LIB\libCH57xBLE.a(rfend.o)
 .text          0x0000000000000000        0x0 G:\╄    单片机\WCH\CH573\Projects\CH571_BLE_Hygrothermograph\LIB\libCH57xBLE.a(api_c.o)
 .data          0x0000000000000000        0x0 G:\╄    单片机\WCH\CH573\Projects\CH571_BLE_Hygrothermograph\LIB\libCH57xBLE.a(api_c.o)
 .bss           0x0000000000000000        0x0 G:\╄    单片机\WCH\CH573\Projects\CH571_BLE_Hygrothermograph\LIB\libCH57xBLE.a(api_c.o)
 .text.dtmRx    0x0000000000000000       0x52 G:\╄    单片机\WCH\CH573\Projects\CH571_BLE_Hygrothermograph\LIB\libCH57xBLE.a(api_c.o)
 .text.API_ReadRemoteVersionInfoCmd
                0x0000000000000000       0x42 G:\╄    单片机\WCH\CH573\Projects\CH571_BLE_Hygrothermograph\LIB\libCH57xBLE.a(api_c.o)
 .text.API_SetEventMaskCmd
                0x0000000000000000       0x38 G:\╄    单片机\WCH\CH573\Projects\CH571_BLE_Hygrothermograph\LIB\libCH57xBLE.a(api_c.o)
 .text.API_ResetCmd
                0x0000000000000000       0x2e G:\╄    单片机\WCH\CH573\Projects\CH571_BLE_Hygrothermograph\LIB\libCH57xBLE.a(api_c.o)
 .text.API_ReadTransmitPowerLevelCmd
                0x0000000000000000       0x3e G:\╄    单片机\WCH\CH573\Projects\CH571_BLE_Hygrothermograph\LIB\libCH57xBLE.a(api_c.o)
 .text.API_SetControllerToHostFlowCtrlCmd
                0x0000000000000000       0x4a G:\╄    单片机\WCH\CH573\Projects\CH571_BLE_Hygrothermograph\LIB\libCH57xBLE.a(api_c.o)
 .text.API_HostBufferSizeCmd
                0x0000000000000000       0x2c G:\╄    单片机\WCH\CH573\Projects\CH571_BLE_Hygrothermograph\LIB\libCH57xBLE.a(api_c.o)
 .text.API_SetEventMaskPage2Cmd
                0x0000000000000000       0x38 G:\╄    单片机\WCH\CH573\Projects\CH571_BLE_Hygrothermograph\LIB\libCH57xBLE.a(api_c.o)
 .text.API_ReadAuthPayloadTimeoutCmd
                0x0000000000000000       0x40 G:\╄    单片机\WCH\CH573\Projects\CH571_BLE_Hygrothermograph\LIB\libCH57xBLE.a(api_c.o)
 .text.API_WriteAuthPayloadTimeoutCmd
                0x0000000000000000       0x3c G:\╄    单片机\WCH\CH573\Projects\CH571_BLE_Hygrothermograph\LIB\libCH57xBLE.a(api_c.o)
 .text.API_ReadLocalVersionInfoCmd
                0x0000000000000000       0x2e G:\╄    单片机\WCH\CH573\Projects\CH571_BLE_Hygrothermograph\LIB\libCH57xBLE.a(api_c.o)
 .text.API_ReadLocalSupportedCommandsCmd
                0x0000000000000000       0x5a G:\╄    单片机\WCH\CH573\Projects\CH571_BLE_Hygrothermograph\LIB\libCH57xBLE.a(api_c.o)
 .text.API_ReadLocalSupportedFeaturesCmd
                0x0000000000000000       0x2e G:\╄    单片机\WCH\CH573\Projects\CH571_BLE_Hygrothermograph\LIB\libCH57xBLE.a(api_c.o)
 .text.API_ReadReadBufferSizeCmd
                0x0000000000000000       0x3a G:\╄    单片机\WCH\CH573\Projects\CH571_BLE_Hygrothermograph\LIB\libCH57xBLE.a(api_c.o)
 .text.API_ReadRssiCmd
                0x0000000000000000       0x40 G:\╄    单片机\WCH\CH573\Projects\CH571_BLE_Hygrothermograph\LIB\libCH57xBLE.a(api_c.o)
 .text.API_LE_SetEventMaskCmd
                0x0000000000000000       0x36 G:\╄    单片机\WCH\CH573\Projects\CH571_BLE_Hygrothermograph\LIB\libCH57xBLE.a(api_c.o)
 .text.API_LE_ReadLocalSupportedFeaturesCmd
                0x0000000000000000       0x2e G:\╄    单片机\WCH\CH573\Projects\CH571_BLE_Hygrothermograph\LIB\libCH57xBLE.a(api_c.o)
 .text.API_LE_ReadAdvChanTxPowerCmd
                0x0000000000000000       0x2e G:\╄    单片机\WCH\CH573\Projects\CH571_BLE_Hygrothermograph\LIB\libCH57xBLE.a(api_c.o)
 .text.API_LE_SetScanParamCmd
                0x0000000000000000       0x2c G:\╄    单片机\WCH\CH573\Projects\CH571_BLE_Hygrothermograph\LIB\libCH57xBLE.a(api_c.o)
 .text.API_LE_CreateConnCmd
                0x0000000000000000       0x3e G:\╄    单片机\WCH\CH573\Projects\CH571_BLE_Hygrothermograph\LIB\libCH57xBLE.a(api_c.o)
 .text.API_LE_ReadWhiteListSizeCmd
                0x0000000000000000       0x2e G:\╄    单片机\WCH\CH573\Projects\CH571_BLE_Hygrothermograph\LIB\libCH57xBLE.a(api_c.o)
 .text.API_LE_RemoveWhiteListCmd
                0x0000000000000000       0x2c G:\╄    单片机\WCH\CH573\Projects\CH571_BLE_Hygrothermograph\LIB\libCH57xBLE.a(api_c.o)
 .text.API_LE_SetHostChanClassificationCmd
                0x0000000000000000       0x2c G:\╄    单片机\WCH\CH573\Projects\CH571_BLE_Hygrothermograph\LIB\libCH57xBLE.a(api_c.o)
 .text.API_LE_ReadChannelMapCmd
                0x0000000000000000       0x46 G:\╄    单片机\WCH\CH573\Projects\CH571_BLE_Hygrothermograph\LIB\libCH57xBLE.a(api_c.o)
 .text.API_LE_ReadRemoteUsedFeaturesCmd
                0x0000000000000000       0x42 G:\╄    单片机\WCH\CH573\Projects\CH571_BLE_Hygrothermograph\LIB\libCH57xBLE.a(api_c.o)
 .text.API_LE_EncryptCmd
                0x0000000000000000       0x2c G:\╄    单片机\WCH\CH573\Projects\CH571_BLE_Hygrothermograph\LIB\libCH57xBLE.a(api_c.o)
 .text.API_LE_ReadSupportedStatesCmd
                0x0000000000000000       0x2e G:\╄    单片机\WCH\CH573\Projects\CH571_BLE_Hygrothermograph\LIB\libCH57xBLE.a(api_c.o)
 .text.API_LE_ReceiverTestCmd
                0x0000000000000000       0x4c G:\╄    单片机\WCH\CH573\Projects\CH571_BLE_Hygrothermograph\LIB\libCH57xBLE.a(api_c.o)
 .text.API_LE_TransmitterTestCmd
                0x0000000000000000       0xa2 G:\╄    单片机\WCH\CH573\Projects\CH571_BLE_Hygrothermograph\LIB\libCH57xBLE.a(api_c.o)
 .text.API_LE_TestEndCmd
                0x0000000000000000       0x3e G:\╄    单片机\WCH\CH573\Projects\CH571_BLE_Hygrothermograph\LIB\libCH57xBLE.a(api_c.o)
 .text.API_MB_SetTxPowerCmd
                0x0000000000000000       0x2c G:\╄    单片机\WCH\CH573\Projects\CH571_BLE_Hygrothermograph\LIB\libCH57xBLE.a(api_c.o)
 .text.API_MB_TuneXT32MCmd
                0x0000000000000000        0x4 G:\╄    单片机\WCH\CH573\Projects\CH571_BLE_Hygrothermograph\LIB\libCH57xBLE.a(api_c.o)
 .text.API_MB_SingleCarrierCmd
                0x0000000000000000       0x2c G:\╄    单片机\WCH\CH573\Projects\CH571_BLE_Hygrothermograph\LIB\libCH57xBLE.a(api_c.o)
 .text.API_MB_WriteRegisterCmd
                0x0000000000000000       0x2a G:\╄    单片机\WCH\CH573\Projects\CH571_BLE_Hygrothermograph\LIB\libCH57xBLE.a(api_c.o)
 .text.API_MB_ReadRegisterCmd
                0x0000000000000000       0x58 G:\╄    单片机\WCH\CH573\Projects\CH571_BLE_Hygrothermograph\LIB\libCH57xBLE.a(api_c.o)
 .text.API_LE_SetDataLengthCmd
                0x0000000000000000       0x3a G:\╄    单片机\WCH\CH573\Projects\CH571_BLE_Hygrothermograph\LIB\libCH57xBLE.a(api_c.o)
 .text.API_LE_ReadSuggestedDefaultDataLength
                0x0000000000000000       0x30 G:\╄    单片机\WCH\CH573\Projects\CH571_BLE_Hygrothermograph\LIB\libCH57xBLE.a(api_c.o)
 .text.API_LE_WriteSuggestedDefaultDataLength
                0x0000000000000000       0x2e G:\╄    单片机\WCH\CH573\Projects\CH571_BLE_Hygrothermograph\LIB\libCH57xBLE.a(api_c.o)
 .text.API_LE_ReadLocalPublicKeyCmd
                0x0000000000000000        0x4 G:\╄    单片机\WCH\CH573\Projects\CH571_BLE_Hygrothermograph\LIB\libCH57xBLE.a(api_c.o)
 .text.API_LE_GenerateDHKeyCmd
                0x0000000000000000        0x4 G:\╄    单片机\WCH\CH573\Projects\CH571_BLE_Hygrothermograph\LIB\libCH57xBLE.a(api_c.o)
 .text.API_LE_RemoveDeviceFromResolvingList
                0x0000000000000000       0x2e G:\╄    单片机\WCH\CH573\Projects\CH571_BLE_Hygrothermograph\LIB\libCH57xBLE.a(api_c.o)
 .text.API_LE_ReadResolvingListSizeCmd
                0x0000000000000000       0x30 G:\╄    单片机\WCH\CH573\Projects\CH571_BLE_Hygrothermograph\LIB\libCH57xBLE.a(api_c.o)
 .text.API_LE_ReadPeerResolvableAddressCmd
                0x0000000000000000       0x30 G:\╄    单片机\WCH\CH573\Projects\CH571_BLE_Hygrothermograph\LIB\libCH57xBLE.a(api_c.o)
 .text.API_LE_ReadLocalResolvableAddressCmd
                0x0000000000000000       0x30 G:\╄    单片机\WCH\CH573\Projects\CH571_BLE_Hygrothermograph\LIB\libCH57xBLE.a(api_c.o)
 .text.API_LE_ReadMaximumDataLengthCmd
                0x0000000000000000       0x64 G:\╄    单片机\WCH\CH573\Projects\CH571_BLE_Hygrothermograph\LIB\libCH57xBLE.a(api_c.o)
 .text.API_GetConnectNumeber
                0x0000000000000000        0xa G:\╄    单片机\WCH\CH573\Projects\CH571_BLE_Hygrothermograph\LIB\libCH57xBLE.a(api_c.o)
 .text          0x0000000000000000        0x0 G:\╄    单片机\WCH\CH573\Projects\CH571_BLE_Hygrothermograph\LIB\libCH57xBLE.a(ctl_input.o)
 .data          0x0000000000000000        0x0 G:\╄    单片机\WCH\CH573\Projects\CH571_BLE_Hygrothermograph\LIB\libCH57xBLE.a(ctl_input.o)
 .bss           0x0000000000000000        0x0 G:\╄    单片机\WCH\CH573\Projects\CH571_BLE_Hygrothermograph\LIB\libCH57xBLE.a(ctl_input.o)
 .text.LL_ReceiverTest
                0x0000000000000000       0x5e G:\╄    单片机\WCH\CH573\Projects\CH571_BLE_Hygrothermograph\LIB\libCH57xBLE.a(ctl_input.o)
 .text.LL_TestEnd
                0x0000000000000000       0x84 G:\╄    单片机\WCH\CH573\Projects\CH571_BLE_Hygrothermograph\LIB\libCH57xBLE.a(ctl_input.o)
 .text.LL_SetTxPowerLevel
                0x0000000000000000       0xb4 G:\╄    单片机\WCH\CH573\Projects\CH571_BLE_Hygrothermograph\LIB\libCH57xBLE.a(ctl_input.o)
 .text.LL_SingleChannel
                0x0000000000000000       0x9e G:\╄    单片机\WCH\CH573\Projects\CH571_BLE_Hygrothermograph\LIB\libCH57xBLE.a(ctl_input.o)
 .text.LL_ReadRemoteVersionInfo
                0x0000000000000000       0x6c G:\╄    单片机\WCH\CH573\Projects\CH571_BLE_Hygrothermograph\LIB\libCH57xBLE.a(ctl_input.o)
 .text.LL_Reset
                0x0000000000000000       0x7e G:\╄    单片机\WCH\CH573\Projects\CH571_BLE_Hygrothermograph\LIB\libCH57xBLE.a(ctl_input.o)
 .text.LL_ReadTxPowerLevel
                0x0000000000000000       0x44 G:\╄    单片机\WCH\CH573\Projects\CH571_BLE_Hygrothermograph\LIB\libCH57xBLE.a(ctl_input.o)
 .text.LL_SetControllerToHostFlowCtrl
                0x0000000000000000       0x18 G:\╄    单片机\WCH\CH573\Projects\CH571_BLE_Hygrothermograph\LIB\libCH57xBLE.a(ctl_input.o)
 .text.LL_ReadAuthPayloadTimeout
                0x0000000000000000       0x2c G:\╄    单片机\WCH\CH573\Projects\CH571_BLE_Hygrothermograph\LIB\libCH57xBLE.a(ctl_input.o)
 .text.LL_WriteAuthPayloadTimeout
                0x0000000000000000       0x6a G:\╄    单片机\WCH\CH573\Projects\CH571_BLE_Hygrothermograph\LIB\libCH57xBLE.a(ctl_input.o)
 .text.LL_ReadLocalVersionInfo
                0x0000000000000000       0x52 G:\╄    单片机\WCH\CH573\Projects\CH571_BLE_Hygrothermograph\LIB\libCH57xBLE.a(ctl_input.o)
 .text.LL_ReadLocalSupportedCommands
                0x0000000000000000       0x20 G:\╄    单片机\WCH\CH573\Projects\CH571_BLE_Hygrothermograph\LIB\libCH57xBLE.a(ctl_input.o)
 .text.LL_ReadLocalSupportedFeatures
                0x0000000000000000       0x1e G:\╄    单片机\WCH\CH573\Projects\CH571_BLE_Hygrothermograph\LIB\libCH57xBLE.a(ctl_input.o)
 .text.LL_ReadRssi
                0x0000000000000000       0x26 G:\╄    单片机\WCH\CH573\Projects\CH571_BLE_Hygrothermograph\LIB\libCH57xBLE.a(ctl_input.o)
 .text.LL_LE_ReadLocalSupportedFeatures
                0x0000000000000000        0x8 G:\╄    单片机\WCH\CH573\Projects\CH571_BLE_Hygrothermograph\LIB\libCH57xBLE.a(ctl_input.o)
 .text.LL_ReadAdvChanTxPower
                0x0000000000000000       0x16 G:\╄    单片机\WCH\CH573\Projects\CH571_BLE_Hygrothermograph\LIB\libCH57xBLE.a(ctl_input.o)
 .text.LL_SetScanParam
                0x0000000000000000       0x70 G:\╄    单片机\WCH\CH573\Projects\CH571_BLE_Hygrothermograph\LIB\libCH57xBLE.a(ctl_input.o)
 .text.LL_CreateConn
                0x0000000000000000      0x1e6 G:\╄    单片机\WCH\CH573\Projects\CH571_BLE_Hygrothermograph\LIB\libCH57xBLE.a(ctl_input.o)
 .text.LL_ReadSuggestedDefaultDataLength
                0x0000000000000000       0x30 G:\╄    单片机\WCH\CH573\Projects\CH571_BLE_Hygrothermograph\LIB\libCH57xBLE.a(ctl_input.o)
 .text.LL_WriteSuggestedDefaultDataLength
                0x0000000000000000       0x14 G:\╄    单片机\WCH\CH573\Projects\CH571_BLE_Hygrothermograph\LIB\libCH57xBLE.a(ctl_input.o)
 .text.LL_SetDataLength
                0x0000000000000000       0x80 G:\╄    单片机\WCH\CH573\Projects\CH571_BLE_Hygrothermograph\LIB\libCH57xBLE.a(ctl_input.o)
 .text.LL_ReadSupportedStates
                0x0000000000000000       0x4e G:\╄    单片机\WCH\CH573\Projects\CH571_BLE_Hygrothermograph\LIB\libCH57xBLE.a(ctl_input.o)
 .text.LL_RemoveWhiteListDevice
                0x0000000000000000       0x76 G:\╄    单片机\WCH\CH573\Projects\CH571_BLE_Hygrothermograph\LIB\libCH57xBLE.a(ctl_input.o)
 .text.LL_ReadWlSize
                0x0000000000000000       0x10 G:\╄    单片机\WCH\CH573\Projects\CH571_BLE_Hygrothermograph\LIB\libCH57xBLE.a(ctl_input.o)
 .text.LL_SetHostChanClassification
                0x0000000000000000       0x46 G:\╄    单片机\WCH\CH573\Projects\CH571_BLE_Hygrothermograph\LIB\libCH57xBLE.a(ctl_input.o)
 .text.LL_ReadChanMap
                0x0000000000000000       0x32 G:\╄    单片机\WCH\CH573\Projects\CH571_BLE_Hygrothermograph\LIB\libCH57xBLE.a(ctl_input.o)
 .text.LL_ReadRemoteUsedFeatures
                0x0000000000000000       0x32 G:\╄    单片机\WCH\CH573\Projects\CH571_BLE_Hygrothermograph\LIB\libCH57xBLE.a(ctl_input.o)
 .text.LL_RemoveDeviceFromResolvingList
                0x0000000000000000       0x7a G:\╄    单片机\WCH\CH573\Projects\CH571_BLE_Hygrothermograph\LIB\libCH57xBLE.a(ctl_input.o)
 .text.LL_ReadResolvingListSize
                0x0000000000000000       0x10 G:\╄    单片机\WCH\CH573\Projects\CH571_BLE_Hygrothermograph\LIB\libCH57xBLE.a(ctl_input.o)
 .text.LL_ReadPeerResolvableAddress
                0x0000000000000000       0x44 G:\╄    单片机\WCH\CH573\Projects\CH571_BLE_Hygrothermograph\LIB\libCH57xBLE.a(ctl_input.o)
 .text.LL_ReadLocalResolvableAddress
                0x0000000000000000       0x44 G:\╄    单片机\WCH\CH573\Projects\CH571_BLE_Hygrothermograph\LIB\libCH57xBLE.a(ctl_input.o)
 .rodata.supportedCmdsTable
                0x0000000000000000       0x40 G:\╄    单片机\WCH\CH573\Projects\CH571_BLE_Hygrothermograph\LIB\libCH57xBLE.a(ctl_input.o)
 .text          0x0000000000000000        0x0 G:\╄    单片机\WCH\CH573\Projects\CH571_BLE_Hygrothermograph\LIB\libCH57xBLE.a(ctl_output.o)
 .data          0x0000000000000000        0x0 G:\╄    单片机\WCH\CH573\Projects\CH571_BLE_Hygrothermograph\LIB\libCH57xBLE.a(ctl_output.o)
 .bss           0x0000000000000000        0x0 G:\╄    单片机\WCH\CH573\Projects\CH571_BLE_Hygrothermograph\LIB\libCH57xBLE.a(ctl_output.o)
 .text.HCI_SetEventMask
                0x0000000000000000        0x2 G:\╄    单片机\WCH\CH573\Projects\CH571_BLE_Hygrothermograph\LIB\libCH57xBLE.a(ctl_output.o)
 .text.HCI_SetEventMaskPage2
                0x0000000000000000        0x2 G:\╄    单片机\WCH\CH573\Projects\CH571_BLE_Hygrothermograph\LIB\libCH57xBLE.a(ctl_output.o)
 .text.HCI_SetLeEventMask
                0x0000000000000000       0x14 G:\╄    单片机\WCH\CH573\Projects\CH571_BLE_Hygrothermograph\LIB\libCH57xBLE.a(ctl_output.o)
 .text.HCI_LE_AdvertisingReportCback
                0x0000000000000000        0xc G:\╄    单片机\WCH\CH573\Projects\CH571_BLE_Hygrothermograph\LIB\libCH57xBLE.a(ctl_output.o)
 .text.HCI_LE_ReadLocalPublicKeyCompleteCback
                0x0000000000000000        0x8 G:\╄    单片机\WCH\CH573\Projects\CH571_BLE_Hygrothermograph\LIB\libCH57xBLE.a(ctl_output.o)
 .text.HCI_LE_GenerateDHKeyCompleteCback
                0x0000000000000000        0x8 G:\╄    单片机\WCH\CH573\Projects\CH571_BLE_Hygrothermograph\LIB\libCH57xBLE.a(ctl_output.o)
 .text.HCI_LE_DirectAdvertisingReportCback
                0x0000000000000000        0xc G:\╄    单片机\WCH\CH573\Projects\CH571_BLE_Hygrothermograph\LIB\libCH57xBLE.a(ctl_output.o)
 .text.HCI_HardwareErrorCback
                0x0000000000000000        0x8 G:\╄    单片机\WCH\CH573\Projects\CH571_BLE_Hygrothermograph\LIB\libCH57xBLE.a(ctl_output.o)
 .text          0x0000000000000000        0x0 G:\╄    单片机\WCH\CH573\Projects\CH571_BLE_Hygrothermograph\LIB\libCH57xBLE.a(broadcaster.o)
 .data          0x0000000000000000        0x0 G:\╄    单片机\WCH\CH573\Projects\CH571_BLE_Hygrothermograph\LIB\libCH57xBLE.a(broadcaster.o)
 .bss           0x0000000000000000        0x0 G:\╄    单片机\WCH\CH573\Projects\CH571_BLE_Hygrothermograph\LIB\libCH57xBLE.a(broadcaster.o)
 .text.GAPRole_BroadcasterSetCB
                0x0000000000000000        0xa G:\╄    单片机\WCH\CH573\Projects\CH571_BLE_Hygrothermograph\LIB\libCH57xBLE.a(broadcaster.o)
 .text          0x0000000000000000        0x0 G:\╄    单片机\WCH\CH573\Projects\CH571_BLE_Hygrothermograph\LIB\libCH57xBLE.a(gapbondmgr.o)
 .data          0x0000000000000000        0x0 G:\╄    单片机\WCH\CH573\Projects\CH571_BLE_Hygrothermograph\LIB\libCH57xBLE.a(gapbondmgr.o)
 .bss           0x0000000000000000        0x0 G:\╄    单片机\WCH\CH573\Projects\CH571_BLE_Hygrothermograph\LIB\libCH57xBLE.a(gapbondmgr.o)
 .text.GAPBondMgr_PeripheralRegister
                0x0000000000000000       0x46 G:\╄    单片机\WCH\CH573\Projects\CH571_BLE_Hygrothermograph\LIB\libCH57xBLE.a(gapbondmgr.o)
 .text.GAPBondMgr_CentralRegister
                0x0000000000000000       0x46 G:\╄    单片机\WCH\CH573\Projects\CH571_BLE_Hygrothermograph\LIB\libCH57xBLE.a(gapbondmgr.o)
 .text.GAPBondMgr_PasscodeRsp
                0x0000000000000000       0x4a G:\╄    单片机\WCH\CH573\Projects\CH571_BLE_Hygrothermograph\LIB\libCH57xBLE.a(gapbondmgr.o)
 .text.GAPBondMgr_PeriSecurityReq
                0x0000000000000000       0x38 G:\╄    单片机\WCH\CH573\Projects\CH571_BLE_Hygrothermograph\LIB\libCH57xBLE.a(gapbondmgr.o)
 .text.GAPBondMgr_LinkEst
                0x0000000000000000      0x19c G:\╄    单片机\WCH\CH573\Projects\CH571_BLE_Hygrothermograph\LIB\libCH57xBLE.a(gapbondmgr.o)
 .text.GAPBondMgr_CheckNVLen
                0x0000000000000000       0x3a G:\╄    单片机\WCH\CH573\Projects\CH571_BLE_Hygrothermograph\LIB\libCH57xBLE.a(gapbondmgr.o)
 .rodata.GAPBondMgr_CheckNVLen
                0x0000000000000000       0x18 G:\╄    单片机\WCH\CH573\Projects\CH571_BLE_Hygrothermograph\LIB\libCH57xBLE.a(gapbondmgr.o)
 .text          0x0000000000000000        0x0 G:\╄    单片机\WCH\CH573\Projects\CH571_BLE_Hygrothermograph\LIB\libCH57xBLE.a(role.o)
 .data          0x0000000000000000        0x0 G:\╄    单片机\WCH\CH573\Projects\CH571_BLE_Hygrothermograph\LIB\libCH57xBLE.a(role.o)
 .bss           0x0000000000000000        0x0 G:\╄    单片机\WCH\CH573\Projects\CH571_BLE_Hygrothermograph\LIB\libCH57xBLE.a(role.o)
 .text.GAPRole_RegisterCentralTaskID
                0x0000000000000000       0x2e G:\╄    单片机\WCH\CH573\Projects\CH571_BLE_Hygrothermograph\LIB\libCH57xBLE.a(role.o)
 .text.GAPRole_ReadRssiCmd
                0x0000000000000000        0x8 G:\╄    单片机\WCH\CH573\Projects\CH571_BLE_Hygrothermograph\LIB\libCH57xBLE.a(role.o)
 .text.GAPRole_TerminateLink
                0x0000000000000000       0x2c G:\╄    单片机\WCH\CH573\Projects\CH571_BLE_Hygrothermograph\LIB\libCH57xBLE.a(role.o)
 .text.GAPRole_ObserverInit
                0x0000000000000000       0xa8 G:\╄    单片机\WCH\CH573\Projects\CH571_BLE_Hygrothermograph\LIB\libCH57xBLE.a(role.o)
 .text.GAPRole_PeripheralInit
                0x0000000000000000       0xa8 G:\╄    单片机\WCH\CH573\Projects\CH571_BLE_Hygrothermograph\LIB\libCH57xBLE.a(role.o)
 .text.GAPRole_CentralInit
                0x0000000000000000       0xbe G:\╄    单片机\WCH\CH573\Projects\CH571_BLE_Hygrothermograph\LIB\libCH57xBLE.a(role.o)
 .text          0x0000000000000000        0x0 G:\╄    单片机\WCH\CH573\Projects\CH571_BLE_Hygrothermograph\LIB\libCH57xBLE.a(memory.o)
 .data          0x0000000000000000        0x0 G:\╄    单片机\WCH\CH573\Projects\CH571_BLE_Hygrothermograph\LIB\libCH57xBLE.a(memory.o)
 .bss           0x0000000000000000        0x0 G:\╄    单片机\WCH\CH573\Projects\CH571_BLE_Hygrothermograph\LIB\libCH57xBLE.a(memory.o)
 .text.tmos_memory_getlen
                0x0000000000000000       0x2c G:\╄    单片机\WCH\CH573\Projects\CH571_BLE_Hygrothermograph\LIB\libCH57xBLE.a(memory.o)
 .text.tmos_memory_get_max_block_len
                0x0000000000000000       0x30 G:\╄    单片机\WCH\CH573\Projects\CH571_BLE_Hygrothermograph\LIB\libCH57xBLE.a(memory.o)
 .text          0x0000000000000000        0x0 G:\╄    单片机\WCH\CH573\Projects\CH571_BLE_Hygrothermograph\LIB\libCH57xBLE.a(att.o)
 .data          0x0000000000000000        0x0 G:\╄    单片机\WCH\CH573\Projects\CH571_BLE_Hygrothermograph\LIB\libCH57xBLE.a(att.o)
 .bss           0x0000000000000000        0x0 G:\╄    单片机\WCH\CH573\Projects\CH571_BLE_Hygrothermograph\LIB\libCH57xBLE.a(att.o)
 .text.ATT_ConvertUUIDto16
                0x0000000000000000       0x5c G:\╄    单片机\WCH\CH573\Projects\CH571_BLE_Hygrothermograph\LIB\libCH57xBLE.a(att.o)
 .text.ATT_RegisterClient
                0x0000000000000000        0xa G:\╄    单片机\WCH\CH573\Projects\CH571_BLE_Hygrothermograph\LIB\libCH57xBLE.a(att.o)
 .text.ATT_ParseErrorRsp
                0x0000000000000000       0x2e G:\╄    单片机\WCH\CH573\Projects\CH571_BLE_Hygrothermograph\LIB\libCH57xBLE.a(att.o)
 .text.ATT_HandleValueCfm
                0x0000000000000000       0x36 G:\╄    单片机\WCH\CH573\Projects\CH571_BLE_Hygrothermograph\LIB\libCH57xBLE.a(att.o)
 .text          0x0000000000000000        0x0 G:\╄    单片机\WCH\CH573\Projects\CH571_BLE_Hygrothermograph\LIB\libCH57xBLE.a(att_client.o)
 .data          0x0000000000000000        0x0 G:\╄    单片机\WCH\CH573\Projects\CH571_BLE_Hygrothermograph\LIB\libCH57xBLE.a(att_client.o)
 .bss           0x0000000000000000        0x0 G:\╄    单片机\WCH\CH573\Projects\CH571_BLE_Hygrothermograph\LIB\libCH57xBLE.a(att_client.o)
 .text.ATT_BuildExchangeMTUReq
                0x0000000000000000       0x16 G:\╄    单片机\WCH\CH573\Projects\CH571_BLE_Hygrothermograph\LIB\libCH57xBLE.a(att_client.o)
 .text.ATT_BuildFindInfoReq
                0x0000000000000000       0x28 G:\╄    单片机\WCH\CH573\Projects\CH571_BLE_Hygrothermograph\LIB\libCH57xBLE.a(att_client.o)
 .text.ATT_BuildFindByTypeValueReq
                0x0000000000000000       0x40 G:\╄    单片机\WCH\CH573\Projects\CH571_BLE_Hygrothermograph\LIB\libCH57xBLE.a(att_client.o)
 .text.ATT_BuildReadReq
                0x0000000000000000       0x16 G:\╄    单片机\WCH\CH573\Projects\CH571_BLE_Hygrothermograph\LIB\libCH57xBLE.a(att_client.o)
 .text.ATT_BuildReadBlobReq
                0x0000000000000000       0x28 G:\╄    单片机\WCH\CH573\Projects\CH571_BLE_Hygrothermograph\LIB\libCH57xBLE.a(att_client.o)
 .text.ATT_BuildReadMultiReq
                0x0000000000000000        0xc G:\╄    单片机\WCH\CH573\Projects\CH571_BLE_Hygrothermograph\LIB\libCH57xBLE.a(att_client.o)
 .text.ATT_BuildWriteReq
                0x0000000000000000       0x1e G:\╄    单片机\WCH\CH573\Projects\CH571_BLE_Hygrothermograph\LIB\libCH57xBLE.a(att_client.o)
 .text.ATT_BuildPrepareWriteReq
                0x0000000000000000       0x30 G:\╄    单片机\WCH\CH573\Projects\CH571_BLE_Hygrothermograph\LIB\libCH57xBLE.a(att_client.o)
 .text.ATT_BuildExecuteWriteReq
                0x0000000000000000        0xc G:\╄    单片机\WCH\CH573\Projects\CH571_BLE_Hygrothermograph\LIB\libCH57xBLE.a(att_client.o)
 .text.ATT_BuildReadByTypeReq
                0x0000000000000000       0x4a G:\╄    单片机\WCH\CH573\Projects\CH571_BLE_Hygrothermograph\LIB\libCH57xBLE.a(att_client.o)
 .text.ATT_ParseExchangeMTURsp
                0x0000000000000000       0x1e G:\╄    单片机\WCH\CH573\Projects\CH571_BLE_Hygrothermograph\LIB\libCH57xBLE.a(att_client.o)
 .text.ATT_ExchangeMTUReq
                0x0000000000000000       0x50 G:\╄    单片机\WCH\CH573\Projects\CH571_BLE_Hygrothermograph\LIB\libCH57xBLE.a(att_client.o)
 .text.ATT_ParseFindInfoRsp
                0x0000000000000000       0x48 G:\╄    单片机\WCH\CH573\Projects\CH571_BLE_Hygrothermograph\LIB\libCH57xBLE.a(att_client.o)
 .text.ATT_FindInfoReq
                0x0000000000000000       0x16 G:\╄    单片机\WCH\CH573\Projects\CH571_BLE_Hygrothermograph\LIB\libCH57xBLE.a(att_client.o)
 .text.ATT_ParseFindByTypeValueRsp
                0x0000000000000000       0x1c G:\╄    单片机\WCH\CH573\Projects\CH571_BLE_Hygrothermograph\LIB\libCH57xBLE.a(att_client.o)
 .text.ATT_FindByTypeValueReq
                0x0000000000000000       0x48 G:\╄    单片机\WCH\CH573\Projects\CH571_BLE_Hygrothermograph\LIB\libCH57xBLE.a(att_client.o)
 .text.ATT_ParseReadByTypeRsp
                0x0000000000000000       0x32 G:\╄    单片机\WCH\CH573\Projects\CH571_BLE_Hygrothermograph\LIB\libCH57xBLE.a(att_client.o)
 .text.ATT_ReadByTypeReq
                0x0000000000000000       0x2a G:\╄    单片机\WCH\CH573\Projects\CH571_BLE_Hygrothermograph\LIB\libCH57xBLE.a(att_client.o)
 .text.ATT_ParseReadRsp
                0x0000000000000000        0xe G:\╄    单片机\WCH\CH573\Projects\CH571_BLE_Hygrothermograph\LIB\libCH57xBLE.a(att_client.o)
 .text.ATT_ReadReq
                0x0000000000000000       0x16 G:\╄    单片机\WCH\CH573\Projects\CH571_BLE_Hygrothermograph\LIB\libCH57xBLE.a(att_client.o)
 .text.ATT_ParseReadBlobRsp
                0x0000000000000000        0xe G:\╄    单片机\WCH\CH573\Projects\CH571_BLE_Hygrothermograph\LIB\libCH57xBLE.a(att_client.o)
 .text.ATT_ReadBlobReq
                0x0000000000000000       0x16 G:\╄    单片机\WCH\CH573\Projects\CH571_BLE_Hygrothermograph\LIB\libCH57xBLE.a(att_client.o)
 .text.ATT_ParseReadMultiRsp
                0x0000000000000000        0xe G:\╄    单片机\WCH\CH573\Projects\CH571_BLE_Hygrothermograph\LIB\libCH57xBLE.a(att_client.o)
 .text.ATT_ReadMultiReq
                0x0000000000000000       0x4e G:\╄    单片机\WCH\CH573\Projects\CH571_BLE_Hygrothermograph\LIB\libCH57xBLE.a(att_client.o)
 .text.ATT_ParseReadByGrpTypeRsp
                0x0000000000000000       0x34 G:\╄    单片机\WCH\CH573\Projects\CH571_BLE_Hygrothermograph\LIB\libCH57xBLE.a(att_client.o)
 .text.ATT_ReadByGrpTypeReq
                0x0000000000000000       0x2a G:\╄    单片机\WCH\CH573\Projects\CH571_BLE_Hygrothermograph\LIB\libCH57xBLE.a(att_client.o)
 .text.ATT_ParseWriteRsp
                0x0000000000000000        0xa G:\╄    单片机\WCH\CH573\Projects\CH571_BLE_Hygrothermograph\LIB\libCH57xBLE.a(att_client.o)
 .text.ATT_WriteReq
                0x0000000000000000       0x78 G:\╄    单片机\WCH\CH573\Projects\CH571_BLE_Hygrothermograph\LIB\libCH57xBLE.a(att_client.o)
 .text.ATT_ParsePrepareWriteRsp
                0x0000000000000000       0x44 G:\╄    单片机\WCH\CH573\Projects\CH571_BLE_Hygrothermograph\LIB\libCH57xBLE.a(att_client.o)
 .text.ATT_PrepareWriteReq
                0x0000000000000000       0x38 G:\╄    单片机\WCH\CH573\Projects\CH571_BLE_Hygrothermograph\LIB\libCH57xBLE.a(att_client.o)
 .text.ATT_ParseExecuteWriteRsp
                0x0000000000000000        0xa G:\╄    单片机\WCH\CH573\Projects\CH571_BLE_Hygrothermograph\LIB\libCH57xBLE.a(att_client.o)
 .text.ATT_ExecuteWriteReq
                0x0000000000000000       0x16 G:\╄    单片机\WCH\CH573\Projects\CH571_BLE_Hygrothermograph\LIB\libCH57xBLE.a(att_client.o)
 .text.ATT_ParseHandleValueInd
                0x0000000000000000       0x34 G:\╄    单片机\WCH\CH573\Projects\CH571_BLE_Hygrothermograph\LIB\libCH57xBLE.a(att_client.o)
 .text.ATT_HandleValueConfirmation
                0x0000000000000000       0x10 G:\╄    单片机\WCH\CH573\Projects\CH571_BLE_Hygrothermograph\LIB\libCH57xBLE.a(att_client.o)
 .comment       0x0000000000000000       0x34 G:\╄    单片机\WCH\CH573\Projects\CH571_BLE_Hygrothermograph\LIB\libCH57xBLE.a(att_client.o)
 .text          0x0000000000000000        0x0 G:\╄    单片机\WCH\CH573\Projects\CH571_BLE_Hygrothermograph\LIB\libCH57xBLE.a(att_server.o)
 .data          0x0000000000000000        0x0 G:\╄    单片机\WCH\CH573\Projects\CH571_BLE_Hygrothermograph\LIB\libCH57xBLE.a(att_server.o)
 .bss           0x0000000000000000        0x0 G:\╄    单片机\WCH\CH573\Projects\CH571_BLE_Hygrothermograph\LIB\libCH57xBLE.a(att_server.o)
 .text.ATT_HandleValueNoti
                0x0000000000000000       0x3a G:\╄    单片机\WCH\CH573\Projects\CH571_BLE_Hygrothermograph\LIB\libCH57xBLE.a(att_server.o)
 .text.ATT_ParseHandleValueCfm
                0x0000000000000000        0xa G:\╄    单片机\WCH\CH573\Projects\CH571_BLE_Hygrothermograph\LIB\libCH57xBLE.a(att_server.o)
 .text          0x0000000000000000        0x0 G:\╄    单片机\WCH\CH573\Projects\CH571_BLE_Hygrothermograph\LIB\libCH57xBLE.a(gapgattserver.o)
 .data          0x0000000000000000        0x0 G:\╄    单片机\WCH\CH573\Projects\CH571_BLE_Hygrothermograph\LIB\libCH57xBLE.a(gapgattserver.o)
 .bss           0x0000000000000000        0x0 G:\╄    单片机\WCH\CH573\Projects\CH571_BLE_Hygrothermograph\LIB\libCH57xBLE.a(gapgattserver.o)
 .text.GGS_GetParameter
                0x0000000000000000       0x6c G:\╄    单片机\WCH\CH573\Projects\CH571_BLE_Hygrothermograph\LIB\libCH57xBLE.a(gapgattserver.o)
 .text.GGS_SetParamValue
                0x0000000000000000        0x2 G:\╄    单片机\WCH\CH573\Projects\CH571_BLE_Hygrothermograph\LIB\libCH57xBLE.a(gapgattserver.o)
 .text.GGS_GetParamValue
                0x0000000000000000        0x4 G:\╄    单片机\WCH\CH573\Projects\CH571_BLE_Hygrothermograph\LIB\libCH57xBLE.a(gapgattserver.o)
 .text.GGS_AddService
                0x0000000000000000       0x38 G:\╄    单片机\WCH\CH573\Projects\CH571_BLE_Hygrothermograph\LIB\libCH57xBLE.a(gapgattserver.o)
 .text.GGS_DelService
                0x0000000000000000       0x1a G:\╄    单片机\WCH\CH573\Projects\CH571_BLE_Hygrothermograph\LIB\libCH57xBLE.a(gapgattserver.o)
 .text.GGS_RegisterAppCBs
                0x0000000000000000        0xa G:\╄    单片机\WCH\CH573\Projects\CH571_BLE_Hygrothermograph\LIB\libCH57xBLE.a(gapgattserver.o)
 .text          0x0000000000000000        0x0 G:\╄    单片机\WCH\CH573\Projects\CH571_BLE_Hygrothermograph\LIB\libCH57xBLE.a(gatt.o)
 .data          0x0000000000000000        0x0 G:\╄    单片机\WCH\CH573\Projects\CH571_BLE_Hygrothermograph\LIB\libCH57xBLE.a(gatt.o)
 .bss           0x0000000000000000        0x0 G:\╄    单片机\WCH\CH573\Projects\CH571_BLE_Hygrothermograph\LIB\libCH57xBLE.a(gatt.o)
 .text.gattRead
                0x0000000000000000       0x58 G:\╄    单片机\WCH\CH573\Projects\CH571_BLE_Hygrothermograph\LIB\libCH57xBLE.a(gatt.o)
 .text.gattWrite.part.0
                0x0000000000000000       0x58 G:\╄    单片机\WCH\CH573\Projects\CH571_BLE_Hygrothermograph\LIB\libCH57xBLE.a(gatt.o)
 .text.gattReadByType
                0x0000000000000000       0x98 G:\╄    单片机\WCH\CH573\Projects\CH571_BLE_Hygrothermograph\LIB\libCH57xBLE.a(gatt.o)
 .text.gattReadLong
                0x0000000000000000       0x58 G:\╄    单片机\WCH\CH573\Projects\CH571_BLE_Hygrothermograph\LIB\libCH57xBLE.a(gatt.o)
 .text.gattWrite
                0x0000000000000000       0x12 G:\╄    单片机\WCH\CH573\Projects\CH571_BLE_Hygrothermograph\LIB\libCH57xBLE.a(gatt.o)
 .text.GATT_DiscAllCharDescs
                0x0000000000000000       0x5a G:\╄    单片机\WCH\CH573\Projects\CH571_BLE_Hygrothermograph\LIB\libCH57xBLE.a(gatt.o)
 .text.GATT_DiscAllChars
                0x0000000000000000       0x2e G:\╄    单片机\WCH\CH573\Projects\CH571_BLE_Hygrothermograph\LIB\libCH57xBLE.a(gatt.o)
 .text.GATT_DiscAllPrimaryServices
                0x0000000000000000       0x66 G:\╄    单片机\WCH\CH573\Projects\CH571_BLE_Hygrothermograph\LIB\libCH57xBLE.a(gatt.o)
 .text.GATT_DiscCharsByUUID
                0x0000000000000000        0xc G:\╄    单片机\WCH\CH573\Projects\CH571_BLE_Hygrothermograph\LIB\libCH57xBLE.a(gatt.o)
 .text.GATT_ExchangeMTU
                0x0000000000000000       0x58 G:\╄    单片机\WCH\CH573\Projects\CH571_BLE_Hygrothermograph\LIB\libCH57xBLE.a(gatt.o)
 .text.GATT_FindIncludedServices
                0x0000000000000000       0x2e G:\╄    单片机\WCH\CH573\Projects\CH571_BLE_Hygrothermograph\LIB\libCH57xBLE.a(gatt.o)
 .text.GATT_ReadCharDesc
                0x0000000000000000        0x8 G:\╄    单片机\WCH\CH573\Projects\CH571_BLE_Hygrothermograph\LIB\libCH57xBLE.a(gatt.o)
 .text.GATT_ReadCharValue
                0x0000000000000000        0x8 G:\╄    单片机\WCH\CH573\Projects\CH571_BLE_Hygrothermograph\LIB\libCH57xBLE.a(gatt.o)
 .text.GATT_ReadLongCharDesc
                0x0000000000000000        0x8 G:\╄    单片机\WCH\CH573\Projects\CH571_BLE_Hygrothermograph\LIB\libCH57xBLE.a(gatt.o)
 .text.GATT_ReadLongCharValue
                0x0000000000000000        0x8 G:\╄    单片机\WCH\CH573\Projects\CH571_BLE_Hygrothermograph\LIB\libCH57xBLE.a(gatt.o)
 .text.GATT_ReadMultiCharValues
                0x0000000000000000       0x58 G:\╄    单片机\WCH\CH573\Projects\CH571_BLE_Hygrothermograph\LIB\libCH57xBLE.a(gatt.o)
 .text.GATT_ReadUsingCharUUID
                0x0000000000000000        0xc G:\╄    单片机\WCH\CH573\Projects\CH571_BLE_Hygrothermograph\LIB\libCH57xBLE.a(gatt.o)
 .text.GATT_SetHostToAppFlowCtrl
                0x0000000000000000        0xe G:\╄    单片机\WCH\CH573\Projects\CH571_BLE_Hygrothermograph\LIB\libCH57xBLE.a(gatt.o)
 .text.GATT_SignedWriteNoRsp
                0x0000000000000000       0x3a G:\╄    单片机\WCH\CH573\Projects\CH571_BLE_Hygrothermograph\LIB\libCH57xBLE.a(gatt.o)
 .text.GATT_WriteCharValue
                0x0000000000000000       0x16 G:\╄    单片机\WCH\CH573\Projects\CH571_BLE_Hygrothermograph\LIB\libCH57xBLE.a(gatt.o)
 .text.GATT_WriteCharDesc
                0x0000000000000000        0x8 G:\╄    单片机\WCH\CH573\Projects\CH571_BLE_Hygrothermograph\LIB\libCH57xBLE.a(gatt.o)
 .text.GATT_WriteNoRsp
                0x0000000000000000       0x4c G:\╄    单片机\WCH\CH573\Projects\CH571_BLE_Hygrothermograph\LIB\libCH57xBLE.a(gatt.o)
 .text.gattRegisterClient
                0x0000000000000000        0xa G:\╄    单片机\WCH\CH573\Projects\CH571_BLE_Hygrothermograph\LIB\libCH57xBLE.a(gatt.o)
 .text.GATT_SendRsp
                0x0000000000000000      0x122 G:\╄    单片机\WCH\CH573\Projects\CH571_BLE_Hygrothermograph\LIB\libCH57xBLE.a(gatt.o)
 .rodata.GATT_SendRsp
                0x0000000000000000       0x64 G:\╄    单片机\WCH\CH573\Projects\CH571_BLE_Hygrothermograph\LIB\libCH57xBLE.a(gatt.o)
 .text.gattFindByTypeValue
                0x0000000000000000       0x84 G:\╄    单片机\WCH\CH573\Projects\CH571_BLE_Hygrothermograph\LIB\libCH57xBLE.a(gatt.o)
 .text.GATT_DiscPrimaryServiceByUUID
                0x0000000000000000       0x86 G:\╄    单片机\WCH\CH573\Projects\CH571_BLE_Hygrothermograph\LIB\libCH57xBLE.a(gatt.o)
 .text.gattPrepareWriteReq
                0x0000000000000000       0x76 G:\╄    单片机\WCH\CH573\Projects\CH571_BLE_Hygrothermograph\LIB\libCH57xBLE.a(gatt.o)
 .text.gattProcessReliableWrites
                0x0000000000000000       0xe4 G:\╄    单片机\WCH\CH573\Projects\CH571_BLE_Hygrothermograph\LIB\libCH57xBLE.a(gatt.o)
 .text.gattProcessWriteLong
                0x0000000000000000       0xd4 G:\╄    单片机\WCH\CH573\Projects\CH571_BLE_Hygrothermograph\LIB\libCH57xBLE.a(gatt.o)
 .text.gattWriteLong
                0x0000000000000000       0x94 G:\╄    单片机\WCH\CH573\Projects\CH571_BLE_Hygrothermograph\LIB\libCH57xBLE.a(gatt.o)
 .text.GATT_WriteLongCharValue
                0x0000000000000000        0x8 G:\╄    单片机\WCH\CH573\Projects\CH571_BLE_Hygrothermograph\LIB\libCH57xBLE.a(gatt.o)
 .text.GATT_WriteLongCharDesc
                0x0000000000000000        0x8 G:\╄    单片机\WCH\CH573\Projects\CH571_BLE_Hygrothermograph\LIB\libCH57xBLE.a(gatt.o)
 .text.GATT_ReliableWrites
                0x0000000000000000       0xee G:\╄    单片机\WCH\CH573\Projects\CH571_BLE_Hygrothermograph\LIB\libCH57xBLE.a(gatt.o)
 .text.GATT_RegisterForPeriMsgs
                0x0000000000000000        0xa G:\╄    单片机\WCH\CH573\Projects\CH571_BLE_Hygrothermograph\LIB\libCH57xBLE.a(gatt.o)
 .text.GATT_RegisterForCentMsgs
                0x0000000000000000        0xa G:\╄    单片机\WCH\CH573\Projects\CH571_BLE_Hygrothermograph\LIB\libCH57xBLE.a(gatt.o)
 .text          0x0000000000000000        0x0 G:\╄    单片机\WCH\CH573\Projects\CH571_BLE_Hygrothermograph\LIB\libCH57xBLE.a(gattclientapp.o)
 .data          0x0000000000000000        0x0 G:\╄    单片机\WCH\CH573\Projects\CH571_BLE_Hygrothermograph\LIB\libCH57xBLE.a(gattclientapp.o)
 .bss           0x0000000000000000        0x0 G:\╄    单片机\WCH\CH573\Projects\CH571_BLE_Hygrothermograph\LIB\libCH57xBLE.a(gattclientapp.o)
 .text.gattProcessReadByType
                0x0000000000000000      0x1f4 G:\╄    单片机\WCH\CH573\Projects\CH571_BLE_Hygrothermograph\LIB\libCH57xBLE.a(gattclientapp.o)
 .text.gattFindClientInfo
                0x0000000000000000       0x34 G:\╄    单片机\WCH\CH573\Projects\CH571_BLE_Hygrothermograph\LIB\libCH57xBLE.a(gattclientapp.o)
 .text.gattClientNotifyTxCB
                0x0000000000000000       0x2c G:\╄    单片机\WCH\CH573\Projects\CH571_BLE_Hygrothermograph\LIB\libCH57xBLE.a(gattclientapp.o)
 .text.gattGetClientStatus
                0x0000000000000000       0x3a G:\╄    单片机\WCH\CH573\Projects\CH571_BLE_Hygrothermograph\LIB\libCH57xBLE.a(gattclientapp.o)
 .text.gattResetClientInfo
                0x0000000000000000       0x8e G:\╄    单片机\WCH\CH573\Projects\CH571_BLE_Hygrothermograph\LIB\libCH57xBLE.a(gattclientapp.o)
 .text.gattClientHandleConnStatusCB
                0x0000000000000000       0xb6 G:\╄    单片机\WCH\CH573\Projects\CH571_BLE_Hygrothermograph\LIB\libCH57xBLE.a(gattclientapp.o)
 .text.gattClientHandleTimerCB
                0x0000000000000000       0x64 G:\╄    单片机\WCH\CH573\Projects\CH571_BLE_Hygrothermograph\LIB\libCH57xBLE.a(gattclientapp.o)
 .text.gattStoreClientInfo
                0x0000000000000000       0x76 G:\╄    单片机\WCH\CH573\Projects\CH571_BLE_Hygrothermograph\LIB\libCH57xBLE.a(gattclientapp.o)
 .text.GATT_RegisterForInd
                0x0000000000000000        0xa G:\╄    单片机\WCH\CH573\Projects\CH571_BLE_Hygrothermograph\LIB\libCH57xBLE.a(gattclientapp.o)
 .text.gattProcessFindInfo
                0x0000000000000000       0x9a G:\╄    单片机\WCH\CH573\Projects\CH571_BLE_Hygrothermograph\LIB\libCH57xBLE.a(gattclientapp.o)
 .text.gattProcessFindByTypeValue
                0x0000000000000000       0x86 G:\╄    单片机\WCH\CH573\Projects\CH571_BLE_Hygrothermograph\LIB\libCH57xBLE.a(gattclientapp.o)
 .text.gattProcessReadLong
                0x0000000000000000       0x84 G:\╄    单片机\WCH\CH573\Projects\CH571_BLE_Hygrothermograph\LIB\libCH57xBLE.a(gattclientapp.o)
 .text.gattProcessReadByGrpType
                0x0000000000000000       0x9a G:\╄    单片机\WCH\CH573\Projects\CH571_BLE_Hygrothermograph\LIB\libCH57xBLE.a(gattclientapp.o)
 .text.gattProcessMultiReqs
                0x0000000000000000      0x168 G:\╄    单片机\WCH\CH573\Projects\CH571_BLE_Hygrothermograph\LIB\libCH57xBLE.a(gattclientapp.o)
 .text.gattClientProcessMsgCB
                0x0000000000000000      0x212 G:\╄    单片机\WCH\CH573\Projects\CH571_BLE_Hygrothermograph\LIB\libCH57xBLE.a(gattclientapp.o)
 .text.GATT_InitClient
                0x0000000000000000       0xe0 G:\╄    单片机\WCH\CH573\Projects\CH571_BLE_Hygrothermograph\LIB\libCH57xBLE.a(gattclientapp.o)
 .sbss.clientInfoTbl
                0x0000000000000000        0x4 G:\╄    单片机\WCH\CH573\Projects\CH571_BLE_Hygrothermograph\LIB\libCH57xBLE.a(gattclientapp.o)
 .sbss.indTaskId
                0x0000000000000000        0x1 G:\╄    单片机\WCH\CH573\Projects\CH571_BLE_Hygrothermograph\LIB\libCH57xBLE.a(gattclientapp.o)
 .comment       0x0000000000000000       0x34 G:\╄    单片机\WCH\CH573\Projects\CH571_BLE_Hygrothermograph\LIB\libCH57xBLE.a(gattclientapp.o)
 .text          0x0000000000000000        0x0 G:\╄    单片机\WCH\CH573\Projects\CH571_BLE_Hygrothermograph\LIB\libCH57xBLE.a(ll.o)
 .data          0x0000000000000000        0x0 G:\╄    单片机\WCH\CH573\Projects\CH571_BLE_Hygrothermograph\LIB\libCH57xBLE.a(ll.o)
 .bss           0x0000000000000000        0x0 G:\╄    单片机\WCH\CH573\Projects\CH571_BLE_Hygrothermograph\LIB\libCH57xBLE.a(ll.o)
 .text          0x0000000000000000        0x0 G:\╄    单片机\WCH\CH573\Projects\CH571_BLE_Hygrothermograph\LIB\libCH57xBLE.a(ll_advertise.o)
 .data          0x0000000000000000        0x0 G:\╄    单片机\WCH\CH573\Projects\CH571_BLE_Hygrothermograph\LIB\libCH57xBLE.a(ll_advertise.o)
 .bss           0x0000000000000000        0x0 G:\╄    单片机\WCH\CH573\Projects\CH571_BLE_Hygrothermograph\LIB\libCH57xBLE.a(ll_advertise.o)
 .text.LL_AdvertiseShut
                0x0000000000000000       0x2c G:\╄    单片机\WCH\CH573\Projects\CH571_BLE_Hygrothermograph\LIB\libCH57xBLE.a(ll_advertise.o)
 .text.LL_AdvertiseEventRegister
                0x0000000000000000        0xa G:\╄    单片机\WCH\CH573\Projects\CH571_BLE_Hygrothermograph\LIB\libCH57xBLE.a(ll_advertise.o)
 .text          0x0000000000000000        0x0 G:\╄    单片机\WCH\CH573\Projects\CH571_BLE_Hygrothermograph\LIB\libCH57xBLE.a(ll_initiate.o)
 .data          0x0000000000000000        0x0 G:\╄    单片机\WCH\CH573\Projects\CH571_BLE_Hygrothermograph\LIB\libCH57xBLE.a(ll_initiate.o)
 .bss           0x0000000000000000        0x0 G:\╄    单片机\WCH\CH573\Projects\CH571_BLE_Hygrothermograph\LIB\libCH57xBLE.a(ll_initiate.o)
 .text.llInitiateStart
                0x0000000000000000       0x86 G:\╄    单片机\WCH\CH573\Projects\CH571_BLE_Hygrothermograph\LIB\libCH57xBLE.a(ll_initiate.o)
 .text.llInitiateTraverseaChannel
                0x0000000000000000       0xea G:\╄    单片机\WCH\CH573\Projects\CH571_BLE_Hygrothermograph\LIB\libCH57xBLE.a(ll_initiate.o)
 .text.llInitiateSet
                0x0000000000000000      0x188 G:\╄    单片机\WCH\CH573\Projects\CH571_BLE_Hygrothermograph\LIB\libCH57xBLE.a(ll_initiate.o)
 .text.llInitiateCreateCore
                0x0000000000000000       0x72 G:\╄    单片机\WCH\CH573\Projects\CH571_BLE_Hygrothermograph\LIB\libCH57xBLE.a(ll_initiate.o)
 .text.ll_initiate_filter
                0x0000000000000000      0x192 G:\╄    单片机\WCH\CH573\Projects\CH571_BLE_Hygrothermograph\LIB\libCH57xBLE.a(ll_initiate.o)
 .text.ll_initiate_process
                0x0000000000000000      0x518 G:\╄    单片机\WCH\CH573\Projects\CH571_BLE_Hygrothermograph\LIB\libCH57xBLE.a(ll_initiate.o)
 .text.LL_InitiateShut
                0x0000000000000000       0xa6 G:\╄    单片机\WCH\CH573\Projects\CH571_BLE_Hygrothermograph\LIB\libCH57xBLE.a(ll_initiate.o)
 .text.LL_InitiateEnable
                0x0000000000000000       0x22 G:\╄    单片机\WCH\CH573\Projects\CH571_BLE_Hygrothermograph\LIB\libCH57xBLE.a(ll_initiate.o)
 .text          0x0000000000000000        0x0 G:\╄    单片机\WCH\CH573\Projects\CH571_BLE_Hygrothermograph\LIB\libCH57xBLE.a(ll_resolvinglist.o)
 .data          0x0000000000000000        0x0 G:\╄    单片机\WCH\CH573\Projects\CH571_BLE_Hygrothermograph\LIB\libCH57xBLE.a(ll_resolvinglist.o)
 .bss           0x0000000000000000        0x0 G:\╄    单片机\WCH\CH573\Projects\CH571_BLE_Hygrothermograph\LIB\libCH57xBLE.a(ll_resolvinglist.o)
 .text.LL_ResolvinglistRemove
                0x0000000000000000       0xae G:\╄    单片机\WCH\CH573\Projects\CH571_BLE_Hygrothermograph\LIB\libCH57xBLE.a(ll_resolvinglist.o)
 .text.LL_ResolvinglistLocalRpaAddressGetIrk
                0x0000000000000000       0x40 G:\╄    单片机\WCH\CH573\Projects\CH571_BLE_Hygrothermograph\LIB\libCH57xBLE.a(ll_resolvinglist.o)
 .text.LL_ResolvinglistCheckPeerResolution
                0x0000000000000000       0x62 G:\╄    单片机\WCH\CH573\Projects\CH571_BLE_Hygrothermograph\LIB\libCH57xBLE.a(ll_resolvinglist.o)
 .text.LL_ResolvinglistCheckLocalResolution
                0x0000000000000000       0x62 G:\╄    单片机\WCH\CH573\Projects\CH571_BLE_Hygrothermograph\LIB\libCH57xBLE.a(ll_resolvinglist.o)
 .text          0x0000000000000000        0x0 G:\╄    单片机\WCH\CH573\Projects\CH571_BLE_Hygrothermograph\LIB\libCH57xBLE.a(central.o)
 .data          0x0000000000000000        0x0 G:\╄    单片机\WCH\CH573\Projects\CH571_BLE_Hygrothermograph\LIB\libCH57xBLE.a(central.o)
 .bss           0x0000000000000000        0x0 G:\╄    单片机\WCH\CH573\Projects\CH571_BLE_Hygrothermograph\LIB\libCH57xBLE.a(central.o)
 .text.GAPRole_CentralProcessEvent
                0x0000000000000000      0x1d4 G:\╄    单片机\WCH\CH573\Projects\CH571_BLE_Hygrothermograph\LIB\libCH57xBLE.a(central.o)
 .text.GAPRole_CentralStartDevice
                0x0000000000000000       0x76 G:\╄    单片机\WCH\CH573\Projects\CH571_BLE_Hygrothermograph\LIB\libCH57xBLE.a(central.o)
 .text.GAPRole_CentralEstablishLink
                0x0000000000000000       0x3e G:\╄    单片机\WCH\CH573\Projects\CH571_BLE_Hygrothermograph\LIB\libCH57xBLE.a(central.o)
 .text.GAPRole_UpdateLink
                0x0000000000000000        0xc G:\╄    单片机\WCH\CH573\Projects\CH571_BLE_Hygrothermograph\LIB\libCH57xBLE.a(central.o)
 .text.GAPRole_CentralStartDiscovery
                0x0000000000000000       0x30 G:\╄    单片机\WCH\CH573\Projects\CH571_BLE_Hygrothermograph\LIB\libCH57xBLE.a(central.o)
 .text.GAPRole_CentralCancelDiscovery
                0x0000000000000000       0x10 G:\╄    单片机\WCH\CH573\Projects\CH571_BLE_Hygrothermograph\LIB\libCH57xBLE.a(central.o)
 .text.GAPRole_CentralEnable
                0x0000000000000000       0xac G:\╄    单片机\WCH\CH573\Projects\CH571_BLE_Hygrothermograph\LIB\libCH57xBLE.a(central.o)
 .sbss.gapCentralRoleTaskId
                0x0000000000000000        0x1 G:\╄    单片机\WCH\CH573\Projects\CH571_BLE_Hygrothermograph\LIB\libCH57xBLE.a(central.o)
 .sbss.pGapCentralRoleCB
                0x0000000000000000        0x4 G:\╄    单片机\WCH\CH573\Projects\CH571_BLE_Hygrothermograph\LIB\libCH57xBLE.a(central.o)
 .comment       0x0000000000000000       0x34 G:\╄    单片机\WCH\CH573\Projects\CH571_BLE_Hygrothermograph\LIB\libCH57xBLE.a(central.o)
 .text          0x0000000000000000        0x0 G:\╄    单片机\WCH\CH573\Projects\CH571_BLE_Hygrothermograph\LIB\libCH57xBLE.a(observer.o)
 .data          0x0000000000000000        0x0 G:\╄    单片机\WCH\CH573\Projects\CH571_BLE_Hygrothermograph\LIB\libCH57xBLE.a(observer.o)
 .bss           0x0000000000000000        0x0 G:\╄    单片机\WCH\CH573\Projects\CH571_BLE_Hygrothermograph\LIB\libCH57xBLE.a(observer.o)
 .text.GAPRole_ObserverProcessEvent
                0x0000000000000000       0x86 G:\╄    单片机\WCH\CH573\Projects\CH571_BLE_Hygrothermograph\LIB\libCH57xBLE.a(observer.o)
 .text.GAPRole_ObserverStartDevice
                0x0000000000000000       0x2a G:\╄    单片机\WCH\CH573\Projects\CH571_BLE_Hygrothermograph\LIB\libCH57xBLE.a(observer.o)
 .text.GAPRole_ObserverStartDiscovery
                0x0000000000000000       0x30 G:\╄    单片机\WCH\CH573\Projects\CH571_BLE_Hygrothermograph\LIB\libCH57xBLE.a(observer.o)
 .text.GAPRole_ObserverCancelDiscovery
                0x0000000000000000       0x10 G:\╄    单片机\WCH\CH573\Projects\CH571_BLE_Hygrothermograph\LIB\libCH57xBLE.a(observer.o)
 .text.GAPRole_ObserverEnable
                0x0000000000000000       0x5a G:\╄    单片机\WCH\CH573\Projects\CH571_BLE_Hygrothermograph\LIB\libCH57xBLE.a(observer.o)
 .sbss.pGapObserverRoleCB
                0x0000000000000000        0x4 G:\╄    单片机\WCH\CH573\Projects\CH571_BLE_Hygrothermograph\LIB\libCH57xBLE.a(observer.o)
 .comment       0x0000000000000000       0x34 G:\╄    单片机\WCH\CH573\Projects\CH571_BLE_Hygrothermograph\LIB\libCH57xBLE.a(observer.o)
 .text          0x0000000000000000        0x0 G:\╄    单片机\WCH\CH573\Projects\CH571_BLE_Hygrothermograph\LIB\libCH57xBLE.a(peripheral.o)
 .data          0x0000000000000000        0x0 G:\╄    单片机\WCH\CH573\Projects\CH571_BLE_Hygrothermograph\LIB\libCH57xBLE.a(peripheral.o)
 .bss           0x0000000000000000        0x0 G:\╄    单片机\WCH\CH573\Projects\CH571_BLE_Hygrothermograph\LIB\libCH57xBLE.a(peripheral.o)
 .text.gapRole_PeripheralProcessTMOSMsg
                0x0000000000000000      0x30c G:\╄    单片机\WCH\CH573\Projects\CH571_BLE_Hygrothermograph\LIB\libCH57xBLE.a(peripheral.o)
 .rodata.gapRole_PeripheralProcessTMOSMsg
                0x0000000000000000       0x20 G:\╄    单片机\WCH\CH573\Projects\CH571_BLE_Hygrothermograph\LIB\libCH57xBLE.a(peripheral.o)
 .text.GAPRole_PeripheralProcessEvent
                0x0000000000000000      0x1ec G:\╄    单片机\WCH\CH573\Projects\CH571_BLE_Hygrothermograph\LIB\libCH57xBLE.a(peripheral.o)
 .text.GAPRole_PeripheralConnParamUpdateReq
                0x0000000000000000       0x72 G:\╄    单片机\WCH\CH573\Projects\CH571_BLE_Hygrothermograph\LIB\libCH57xBLE.a(peripheral.o)
 .text.GAPRole_PeripheralStartDevice
                0x0000000000000000       0x7a G:\╄    单片机\WCH\CH573\Projects\CH571_BLE_Hygrothermograph\LIB\libCH57xBLE.a(peripheral.o)
 .text.GAPRole_PeripheralLinkNum
                0x0000000000000000        0x8 G:\╄    单片机\WCH\CH573\Projects\CH571_BLE_Hygrothermograph\LIB\libCH57xBLE.a(peripheral.o)
 .text.GAPRole_PeripheralEnable
                0x0000000000000000      0x134 G:\╄    单片机\WCH\CH573\Projects\CH571_BLE_Hygrothermograph\LIB\libCH57xBLE.a(peripheral.o)
 .bss.gapRole_OldIRK
                0x0000000000000000       0x10 G:\╄    单片机\WCH\CH573\Projects\CH571_BLE_Hygrothermograph\LIB\libCH57xBLE.a(peripheral.o)
 .bss.gapRole_OldSRK
                0x0000000000000000       0x10 G:\╄    单片机\WCH\CH573\Projects\CH571_BLE_Hygrothermograph\LIB\libCH57xBLE.a(peripheral.o)
 .sbss.pGapRoles_AppCGs
                0x0000000000000000        0x4 G:\╄    单片机\WCH\CH573\Projects\CH571_BLE_Hygrothermograph\LIB\libCH57xBLE.a(peripheral.o)
 .comment       0x0000000000000000       0x34 G:\╄    单片机\WCH\CH573\Projects\CH571_BLE_Hygrothermograph\LIB\libCH57xBLE.a(peripheral.o)
 .text          0x0000000000000000        0x0 G:\╄    单片机\WCH\CH573\Projects\CH571_BLE_Hygrothermograph\LIB\libCH57xBLE.a(ll_address.o)
 .data          0x0000000000000000        0x0 G:\╄    单片机\WCH\CH573\Projects\CH571_BLE_Hygrothermograph\LIB\libCH57xBLE.a(ll_address.o)
 .bss           0x0000000000000000        0x0 G:\╄    单片机\WCH\CH573\Projects\CH571_BLE_Hygrothermograph\LIB\libCH57xBLE.a(ll_address.o)
 .text.LL_AddrCreateOwnAddress
                0x0000000000000000        0x2 G:\╄    单片机\WCH\CH573\Projects\CH571_BLE_Hygrothermograph\LIB\libCH57xBLE.a(ll_address.o)
 .text          0x0000000000000000        0x0 e:/mounriver/mounriver_studio/toolchain/risc-v embedded gcc/bin/../lib/gcc/riscv-none-embed/8.2.0/rv32imac/ilp32\libgcc.a(_lshrdi3.o)
 .data          0x0000000000000000        0x0 e:/mounriver/mounriver_studio/toolchain/risc-v embedded gcc/bin/../lib/gcc/riscv-none-embed/8.2.0/rv32imac/ilp32\libgcc.a(_lshrdi3.o)
 .bss           0x0000000000000000        0x0 e:/mounriver/mounriver_studio/toolchain/risc-v embedded gcc/bin/../lib/gcc/riscv-none-embed/8.2.0/rv32imac/ilp32\libgcc.a(_lshrdi3.o)
 .text.__lshrdi3
                0x0000000000000000       0x2c e:/mounriver/mounriver_studio/toolchain/risc-v embedded gcc/bin/../lib/gcc/riscv-none-embed/8.2.0/rv32imac/ilp32\libgcc.a(_lshrdi3.o)
 .debug_frame   0x0000000000000000       0x20 e:/mounriver/mounriver_studio/toolchain/risc-v embedded gcc/bin/../lib/gcc/riscv-none-embed/8.2.0/rv32imac/ilp32\libgcc.a(_lshrdi3.o)
 .text          0x0000000000000000        0x0 e:/mounriver/mounriver_studio/toolchain/risc-v embedded gcc/bin/../lib/gcc/riscv-none-embed/8.2.0/rv32imac/ilp32\libgcc.a(_ashrdi3.o)
 .data          0x0000000000000000        0x0 e:/mounriver/mounriver_studio/toolchain/risc-v embedded gcc/bin/../lib/gcc/riscv-none-embed/8.2.0/rv32imac/ilp32\libgcc.a(_ashrdi3.o)
 .bss           0x0000000000000000        0x0 e:/mounriver/mounriver_studio/toolchain/risc-v embedded gcc/bin/../lib/gcc/riscv-none-embed/8.2.0/rv32imac/ilp32\libgcc.a(_ashrdi3.o)
 .text.__ashrdi3
                0x0000000000000000       0x2e e:/mounriver/mounriver_studio/toolchain/risc-v embedded gcc/bin/../lib/gcc/riscv-none-embed/8.2.0/rv32imac/ilp32\libgcc.a(_ashrdi3.o)
 .debug_frame   0x0000000000000000       0x20 e:/mounriver/mounriver_studio/toolchain/risc-v embedded gcc/bin/../lib/gcc/riscv-none-embed/8.2.0/rv32imac/ilp32\libgcc.a(_ashrdi3.o)
 .text          0x0000000000000000        0x0 e:/mounriver/mounriver_studio/toolchain/risc-v embedded gcc/bin/../lib/gcc/riscv-none-embed/8.2.0/rv32imac/ilp32\libgcc.a(_divdi3.o)
 .data          0x0000000000000000        0x0 e:/mounriver/mounriver_studio/toolchain/risc-v embedded gcc/bin/../lib/gcc/riscv-none-embed/8.2.0/rv32imac/ilp32\libgcc.a(_divdi3.o)
 .bss           0x0000000000000000        0x0 e:/mounriver/mounriver_studio/toolchain/risc-v embedded gcc/bin/../lib/gcc/riscv-none-embed/8.2.0/rv32imac/ilp32\libgcc.a(_divdi3.o)
 .text.__divdi3
                0x0000000000000000      0x3d8 e:/mounriver/mounriver_studio/toolchain/risc-v embedded gcc/bin/../lib/gcc/riscv-none-embed/8.2.0/rv32imac/ilp32\libgcc.a(_divdi3.o)
 .eh_frame      0x0000000000000000       0x28 e:/mounriver/mounriver_studio/toolchain/risc-v embedded gcc/bin/../lib/gcc/riscv-none-embed/8.2.0/rv32imac/ilp32\libgcc.a(_divdi3.o)
 .text          0x0000000000000000        0x0 e:/mounriver/mounriver_studio/toolchain/risc-v embedded gcc/bin/../lib/gcc/riscv-none-embed/8.2.0/rv32imac/ilp32\libgcc.a(_udivdi3.o)
 .data          0x0000000000000000        0x0 e:/mounriver/mounriver_studio/toolchain/risc-v embedded gcc/bin/../lib/gcc/riscv-none-embed/8.2.0/rv32imac/ilp32\libgcc.a(_udivdi3.o)
 .bss           0x0000000000000000        0x0 e:/mounriver/mounriver_studio/toolchain/risc-v embedded gcc/bin/../lib/gcc/riscv-none-embed/8.2.0/rv32imac/ilp32\libgcc.a(_udivdi3.o)
 .text.__udivdi3
                0x0000000000000000      0x398 e:/mounriver/mounriver_studio/toolchain/risc-v embedded gcc/bin/../lib/gcc/riscv-none-embed/8.2.0/rv32imac/ilp32\libgcc.a(_udivdi3.o)
 .eh_frame      0x0000000000000000       0x28 e:/mounriver/mounriver_studio/toolchain/risc-v embedded gcc/bin/../lib/gcc/riscv-none-embed/8.2.0/rv32imac/ilp32\libgcc.a(_udivdi3.o)
 .text          0x0000000000000000        0x0 e:/mounriver/mounriver_studio/toolchain/risc-v embedded gcc/bin/../lib/gcc/riscv-none-embed/8.2.0/rv32imac/ilp32\libgcc.a(muldf3.o)
 .data          0x0000000000000000        0x0 e:/mounriver/mounriver_studio/toolchain/risc-v embedded gcc/bin/../lib/gcc/riscv-none-embed/8.2.0/rv32imac/ilp32\libgcc.a(muldf3.o)
 .bss           0x0000000000000000        0x0 e:/mounriver/mounriver_studio/toolchain/risc-v embedded gcc/bin/../lib/gcc/riscv-none-embed/8.2.0/rv32imac/ilp32\libgcc.a(muldf3.o)
 .text          0x0000000000000000        0x0 e:/mounriver/mounriver_studio/toolchain/risc-v embedded gcc/bin/../lib/gcc/riscv-none-embed/8.2.0/rv32imac/ilp32\libgcc.a(floatsidf.o)
 .data          0x0000000000000000        0x0 e:/mounriver/mounriver_studio/toolchain/risc-v embedded gcc/bin/../lib/gcc/riscv-none-embed/8.2.0/rv32imac/ilp32\libgcc.a(floatsidf.o)
 .bss           0x0000000000000000        0x0 e:/mounriver/mounriver_studio/toolchain/risc-v embedded gcc/bin/../lib/gcc/riscv-none-embed/8.2.0/rv32imac/ilp32\libgcc.a(floatsidf.o)
 .text          0x0000000000000000        0x0 e:/mounriver/mounriver_studio/toolchain/risc-v embedded gcc/bin/../lib/gcc/riscv-none-embed/8.2.0/rv32imac/ilp32\libgcc.a(divsf3.o)
 .data          0x0000000000000000        0x0 e:/mounriver/mounriver_studio/toolchain/risc-v embedded gcc/bin/../lib/gcc/riscv-none-embed/8.2.0/rv32imac/ilp32\libgcc.a(divsf3.o)
 .bss           0x0000000000000000        0x0 e:/mounriver/mounriver_studio/toolchain/risc-v embedded gcc/bin/../lib/gcc/riscv-none-embed/8.2.0/rv32imac/ilp32\libgcc.a(divsf3.o)
 .text          0x0000000000000000        0x0 e:/mounriver/mounriver_studio/toolchain/risc-v embedded gcc/bin/../lib/gcc/riscv-none-embed/8.2.0/rv32imac/ilp32\libgcc.a(mulsf3.o)
 .data          0x0000000000000000        0x0 e:/mounriver/mounriver_studio/toolchain/risc-v embedded gcc/bin/../lib/gcc/riscv-none-embed/8.2.0/rv32imac/ilp32\libgcc.a(mulsf3.o)
 .bss           0x0000000000000000        0x0 e:/mounriver/mounriver_studio/toolchain/risc-v embedded gcc/bin/../lib/gcc/riscv-none-embed/8.2.0/rv32imac/ilp32\libgcc.a(mulsf3.o)
 .text          0x0000000000000000        0x0 e:/mounriver/mounriver_studio/toolchain/risc-v embedded gcc/bin/../lib/gcc/riscv-none-embed/8.2.0/rv32imac/ilp32\libgcc.a(fixsfsi.o)
 .data          0x0000000000000000        0x0 e:/mounriver/mounriver_studio/toolchain/risc-v embedded gcc/bin/../lib/gcc/riscv-none-embed/8.2.0/rv32imac/ilp32\libgcc.a(fixsfsi.o)
 .bss           0x0000000000000000        0x0 e:/mounriver/mounriver_studio/toolchain/risc-v embedded gcc/bin/../lib/gcc/riscv-none-embed/8.2.0/rv32imac/ilp32\libgcc.a(fixsfsi.o)
 .text          0x0000000000000000        0x0 e:/mounriver/mounriver_studio/toolchain/risc-v embedded gcc/bin/../lib/gcc/riscv-none-embed/8.2.0/rv32imac/ilp32\libgcc.a(fixunssfsi.o)
 .data          0x0000000000000000        0x0 e:/mounriver/mounriver_studio/toolchain/risc-v embedded gcc/bin/../lib/gcc/riscv-none-embed/8.2.0/rv32imac/ilp32\libgcc.a(fixunssfsi.o)
 .bss           0x0000000000000000        0x0 e:/mounriver/mounriver_studio/toolchain/risc-v embedded gcc/bin/../lib/gcc/riscv-none-embed/8.2.0/rv32imac/ilp32\libgcc.a(fixunssfsi.o)
 .text          0x0000000000000000        0x0 e:/mounriver/mounriver_studio/toolchain/risc-v embedded gcc/bin/../lib/gcc/riscv-none-embed/8.2.0/rv32imac/ilp32\libgcc.a(floatsisf.o)
 .data          0x0000000000000000        0x0 e:/mounriver/mounriver_studio/toolchain/risc-v embedded gcc/bin/../lib/gcc/riscv-none-embed/8.2.0/rv32imac/ilp32\libgcc.a(floatsisf.o)
 .bss           0x0000000000000000        0x0 e:/mounriver/mounriver_studio/toolchain/risc-v embedded gcc/bin/../lib/gcc/riscv-none-embed/8.2.0/rv32imac/ilp32\libgcc.a(floatsisf.o)
 .text          0x0000000000000000        0x0 e:/mounriver/mounriver_studio/toolchain/risc-v embedded gcc/bin/../lib/gcc/riscv-none-embed/8.2.0/rv32imac/ilp32\libgcc.a(truncdfsf2.o)
 .data          0x0000000000000000        0x0 e:/mounriver/mounriver_studio/toolchain/risc-v embedded gcc/bin/../lib/gcc/riscv-none-embed/8.2.0/rv32imac/ilp32\libgcc.a(truncdfsf2.o)
 .bss           0x0000000000000000        0x0 e:/mounriver/mounriver_studio/toolchain/risc-v embedded gcc/bin/../lib/gcc/riscv-none-embed/8.2.0/rv32imac/ilp32\libgcc.a(truncdfsf2.o)
 .text          0x0000000000000000        0x0 e:/mounriver/mounriver_studio/toolchain/risc-v embedded gcc/bin/../lib/gcc/riscv-none-embed/8.2.0/rv32imac/ilp32\libgcc.a(_clz.o)
 .data          0x0000000000000000        0x0 e:/mounriver/mounriver_studio/toolchain/risc-v embedded gcc/bin/../lib/gcc/riscv-none-embed/8.2.0/rv32imac/ilp32\libgcc.a(_clz.o)
 .bss           0x0000000000000000        0x0 e:/mounriver/mounriver_studio/toolchain/risc-v embedded gcc/bin/../lib/gcc/riscv-none-embed/8.2.0/rv32imac/ilp32\libgcc.a(_clz.o)
 .text          0x0000000000000000        0x0 e:/mounriver/mounriver_studio/toolchain/risc-v embedded gcc/bin/../lib/gcc/riscv-none-embed/8.2.0/rv32imac/ilp32\libgcc.a(_clzsi2.o)
 .data          0x0000000000000000        0x0 e:/mounriver/mounriver_studio/toolchain/risc-v embedded gcc/bin/../lib/gcc/riscv-none-embed/8.2.0/rv32imac/ilp32\libgcc.a(_clzsi2.o)
 .bss           0x0000000000000000        0x0 e:/mounriver/mounriver_studio/toolchain/risc-v embedded gcc/bin/../lib/gcc/riscv-none-embed/8.2.0/rv32imac/ilp32\libgcc.a(_clzsi2.o)
 .text          0x0000000000000000        0x0 e:/mounriver/mounriver_studio/toolchain/risc-v embedded gcc/bin/../lib/gcc/riscv-none-embed/8.2.0/../../../../riscv-none-embed/lib/rv32imac/ilp32\libg_nano.a(lib_a-memcpy.o)
 .data          0x0000000000000000        0x0 e:/mounriver/mounriver_studio/toolchain/risc-v embedded gcc/bin/../lib/gcc/riscv-none-embed/8.2.0/../../../../riscv-none-embed/lib/rv32imac/ilp32\libg_nano.a(lib_a-memcpy.o)
 .bss           0x0000000000000000        0x0 e:/mounriver/mounriver_studio/toolchain/risc-v embedded gcc/bin/../lib/gcc/riscv-none-embed/8.2.0/../../../../riscv-none-embed/lib/rv32imac/ilp32\libg_nano.a(lib_a-memcpy.o)

Memory Configuration

Name             Origin             Length             Attributes
FLASH            0x0000000000000000 0x0000000000030000 xr
RAM              0x0000000020003800 0x0000000000004800 xrw
*default*        0x0000000000000000 0xffffffffffffffff

Linker script and memory map

LOAD ./StdPeriphDriver/CH57x_adc.o
LOAD ./StdPeriphDriver/CH57x_clk.o
LOAD ./StdPeriphDriver/CH57x_flash.o
LOAD ./StdPeriphDriver/CH57x_gpio.o
LOAD ./StdPeriphDriver/CH57x_pwr.o
LOAD ./StdPeriphDriver/CH57x_sys.o
LOAD ./StdPeriphDriver/CH57x_uart1.o
LOAD ./Startup/startup_CH573.o
LOAD ./RVMSIS/core_riscv.o
LOAD ./Profile/devinfoservice.o
LOAD ./HAL/MCU.o
LOAD ./HAL/RTC.o
LOAD ./HAL/SLEEP.o
LOAD ./APP/I2C.o
LOAD ./APP/SHT4X.o
LOAD ./APP/broadcaster.o
LOAD ./APP/broadcaster_main.o
LOAD G:\╄    单片机\WCH\CH573\Projects\CH571_BLE_Hygrothermograph\StdPeriphDriver\libISP573.a
LOAD G:\╄    单片机\WCH\CH573\Projects\CH571_BLE_Hygrothermograph\LIB\libCH57xBLE.a
LOAD e:/mounriver/mounriver_studio/toolchain/risc-v embedded gcc/bin/../lib/gcc/riscv-none-embed/8.2.0/rv32imac/ilp32\libgcc.a
LOAD e:/mounriver/mounriver_studio/toolchain/risc-v embedded gcc/bin/../lib/gcc/riscv-none-embed/8.2.0/../../../../riscv-none-embed/lib/rv32imac/ilp32\libg_nano.a
LOAD e:/mounriver/mounriver_studio/toolchain/risc-v embedded gcc/bin/../lib/gcc/riscv-none-embed/8.2.0/../../../../riscv-none-embed/lib/rv32imac/ilp32\libc_nano.a
LOAD e:/mounriver/mounriver_studio/toolchain/risc-v embedded gcc/bin/../lib/gcc/riscv-none-embed/8.2.0/rv32imac/ilp32\libgcc.a
START GROUP
LOAD e:/mounriver/mounriver_studio/toolchain/risc-v embedded gcc/bin/../lib/gcc/riscv-none-embed/8.2.0/rv32imac/ilp32\libgcc.a
LOAD e:/mounriver/mounriver_studio/toolchain/risc-v embedded gcc/bin/../lib/gcc/riscv-none-embed/8.2.0/../../../../riscv-none-embed/lib/rv32imac/ilp32\libc_nano.a
LOAD e:/mounriver/mounriver_studio/toolchain/risc-v embedded gcc/bin/../lib/gcc/riscv-none-embed/8.2.0/../../../../riscv-none-embed/lib/rv32imac/ilp32\libnosys.a
END GROUP
START GROUP
LOAD e:/mounriver/mounriver_studio/toolchain/risc-v embedded gcc/bin/../lib/gcc/riscv-none-embed/8.2.0/rv32imac/ilp32\libgcc.a
LOAD e:/mounriver/mounriver_studio/toolchain/risc-v embedded gcc/bin/../lib/gcc/riscv-none-embed/8.2.0/../../../../riscv-none-embed/lib/rv32imac/ilp32\libc_nano.a
LOAD e:/mounriver/mounriver_studio/toolchain/risc-v embedded gcc/bin/../lib/gcc/riscv-none-embed/8.2.0/../../../../riscv-none-embed/lib/rv32imac/ilp32\libnosys.a
END GROUP

.init           0x0000000000000000        0x4
                0x0000000000000000                _sinit = .
                0x0000000000000000                . = ALIGN (0x4)
 *(SORT_NONE(.init))
 .init          0x0000000000000000        0x4 ./Startup/startup_CH573.o
                0x0000000000000000                _start
                0x0000000000000004                . = ALIGN (0x4)
                0x0000000000000004                _einit = .

.highcodelalign
                0x0000000000000004        0x0
                0x0000000000000004                . = ALIGN (0x4)
                0x0000000000000004                PROVIDE (_highcode_lma = .)

.highcode       0x0000000020003800     0x1318 load address 0x0000000000000004
                0x0000000020003800                . = ALIGN (0x4)
                0x0000000020003800                PROVIDE (_highcode_vma_start = .)
 *(.vector)
 .vector        0x0000000020003800       0x90 ./Startup/startup_CH573.o
 *(SORT_NONE(.vector_handler))
 .vector_handler
                0x0000000020003890       0x2c ./Startup/startup_CH573.o
                0x0000000020003890                NMI_Handler
                0x0000000020003894                SysTick_Handler
                0x0000000020003896                SW_Handler
                0x0000000020003898                TMR0_IRQHandler
                0x000000002000389a                GPIOA_IRQHandler
                0x000000002000389c                GPIOB_IRQHandler
                0x000000002000389e                SPI0_IRQHandler
                0x00000000200038a0                BB_IRQHandler
                0x00000000200038a2                LLE_IRQHandler
                0x00000000200038a4                USB_IRQHandler
                0x00000000200038a6                TMR1_IRQHandler
                0x00000000200038a8                TMR2_IRQHandler
                0x00000000200038aa                UART0_IRQHandler
                0x00000000200038ac                UART1_IRQHandler
                0x00000000200038b0                ADC_IRQHandler
                0x00000000200038b2                PWMX_IRQHandler
                0x00000000200038b4                TMR3_IRQHandler
                0x00000000200038b6                UART2_IRQHandler
                0x00000000200038b8                UART3_IRQHandler
                0x00000000200038ba                WDOG_BAT_IRQHandler
 *(.highcode)
 .highcode      0x00000000200038bc       0x4a ./StdPeriphDriver/CH57x_clk.o
                0x00000000200038bc                Get_Calibration_Cnt_RAM
 .highcode      0x0000000020003906      0x2b8 ./StdPeriphDriver/CH57x_pwr.o
                0x0000000020003906                LowPower_Idle
                0x0000000020003944                LowPower_Halt
                0x0000000020003a00                LowPower_Sleep
                0x0000000020003af0                LowPower_Shutdown
 .highcode      0x0000000020003bbe      0x1a8 ./StdPeriphDriver/CH57x_sys.o
                0x0000000020003bbe                SetSysClock
                0x0000000020003cba                SYS_ResetExecute
                0x0000000020003cf2                HardFault_Handler
                0x0000000020003d30                mDelayuS
                0x0000000020003d3e                mDelaymS
 .highcode      0x0000000020003d66       0x16 ./HAL/RTC.o
                0x0000000020003d66                RTC_IRQHandler
 .highcode      0x0000000020003d7c        0x8 ./APP/broadcaster_main.o
                0x0000000020003d7c                Main_Circulation
 .highcode      0x0000000020003d84      0x3ee G:\╄    单片机\WCH\CH573\Projects\CH571_BLE_Hygrothermograph\StdPeriphDriver\libISP573.a(ISP573.o)
                0x0000000020003d84                FLASH_ROM_BEG
                0x0000000020003d96                FLASH_ROM_END
                0x0000000020003da4                FLASH_ROM_IN
                0x0000000020003db2                FLASH_ROM_OUT
                0x0000000020003dc0                FLASH_ROM_ADDR
                0x0000000020003e08                FLASH_ROM_WAIT
                0x0000000020003e40                FLASH_EEPROM_CMD
 .highcode      0x0000000020004172      0x230 G:\╄    单片机\WCH\CH573\Projects\CH571_BLE_Hygrothermograph\LIB\libCH57xBLE.a(tmos.o)
                0x000000002000418e                tmos_memcpy
                0x00000000200041ae                tmos_memcpy_word
                0x00000000200041ca                TMOS_SystemProcess
 .highcode      0x00000000200043a2       0xc2 G:\╄    单片机\WCH\CH573\Projects\CH571_BLE_Hygrothermograph\LIB\libCH57xBLE.a(tmos_hw.o)
                0x00000000200043a2                BLE_GetHSEClock
                0x00000000200043e0                RTC_Get32KClock
                0x00000000200043f8                SYS_GetTickCount
 .highcode      0x0000000020004464      0x1b8 G:\╄    单片机\WCH\CH573\Projects\CH571_BLE_Hygrothermograph\LIB\libCH57xBLE.a(bb.o)
                0x0000000020004464                BB_IRQLibHandler
 .highcode      0x000000002000461c      0x198 G:\╄    单片机\WCH\CH573\Projects\CH571_BLE_Hygrothermograph\LIB\libCH57xBLE.a(ip.o)
                0x000000002000461c                ll_tx_wait_finish
                0x0000000020004648                ll_tx_wait_tx_dma
                0x00000000200046a6                ll_rx_wait_finish
                0x00000000200046dc                ll_rx_wait_tx_dma
                0x000000002000472a                ble_ll_chkcrc
 .highcode      0x00000000200047b4      0x17c G:\╄    单片机\WCH\CH573\Projects\CH571_BLE_Hygrothermograph\LIB\libCH57xBLE.a(lle.o)
                0x00000000200047b4                LLE_IRQLibHandler
 .highcode      0x0000000020004930       0x82 G:\╄    单片机\WCH\CH573\Projects\CH571_BLE_Hygrothermograph\LIB\libCH57xBLE.a(rf_fh.o)
                0x0000000020004930                RF_HopGetChannel
 .highcode      0x00000000200049b2       0x2c G:\╄    单片机\WCH\CH573\Projects\CH571_BLE_Hygrothermograph\LIB\libCH57xBLE.a(rfend.o)
                0x00000000200049b2                RFEND_WaitTune
 .highcode      0x00000000200049de      0x13a G:\╄    单片机\WCH\CH573\Projects\CH571_BLE_Hygrothermograph\LIB\libCH57xBLE.a(memory.o)
                0x00000000200049de                tmos_memory_allocate
                0x0000000020004a78                tmos_memory_free
 *(.highcode.*)
                0x0000000020004b18                . = ALIGN (0x4)
 *fill*         0x0000000020004b18        0x0 
                0x0000000020004b18                PROVIDE (_highcode_vma_end = .)

.text           0x000000000000131c    0x157d8
                0x000000000000131c                . = ALIGN (0x4)
 *(SORT_NONE(.handle_reset))
 .handle_reset  0x000000000000131c       0xa2 ./Startup/startup_CH573.o
                0x000000000000131c                handle_reset
 *(.text)
 *(.text.*)
 .text.ADC_DataCalib_Rough
                0x00000000000013be       0x94 ./StdPeriphDriver/CH57x_adc.o
                0x00000000000013be                ADC_DataCalib_Rough
 .text.ADC_ExtSingleChSampInit
                0x0000000000001452       0x24 ./StdPeriphDriver/CH57x_adc.o
                0x0000000000001452                ADC_ExtSingleChSampInit
 .text.ADC_InterTSSampInit
                0x0000000000001476       0x28 ./StdPeriphDriver/CH57x_adc.o
                0x0000000000001476                ADC_InterTSSampInit
 .text.ADC_ExcutSingleConver
                0x000000000000149e       0x20 ./StdPeriphDriver/CH57x_adc.o
                0x000000000000149e                ADC_ExcutSingleConver
 .text.HSECFG_Current
                0x00000000000014be       0x2a ./StdPeriphDriver/CH57x_clk.o
                0x00000000000014be                HSECFG_Current
 .text.Calibration_LSI_FLASH
                0x00000000000014e8      0x26e ./StdPeriphDriver/CH57x_clk.o
                0x00000000000014e8                Calibration_LSI_FLASH
 .text.Calibration_LSI_RAM
                0x0000000000001756      0x22c ./StdPeriphDriver/CH57x_clk.o
                0x0000000000001756                Calibration_LSI_RAM
 .text.RTC_InitTime
                0x0000000000001982      0x134 ./StdPeriphDriver/CH57x_clk.o
                0x0000000000001982                RTC_InitTime
 .text.RTC_GetCycle32k
                0x0000000000001ab6       0x18 ./StdPeriphDriver/CH57x_clk.o
                0x0000000000001ab6                RTC_GetCycle32k
 .text.GPIOA_ModeCfg
                0x0000000000001ace       0xa6 ./StdPeriphDriver/CH57x_gpio.o
                0x0000000000001ace                GPIOA_ModeCfg
 .text.GPIOB_ModeCfg
                0x0000000000001b74       0xa6 ./StdPeriphDriver/CH57x_gpio.o
                0x0000000000001b74                GPIOB_ModeCfg
 .text.PWR_DCDCCfg
                0x0000000000001c1a       0x7c ./StdPeriphDriver/CH57x_pwr.o
                0x0000000000001c1a                PWR_DCDCCfg
 .text.SYS_DisableAllIrq
                0x0000000000001c96       0x1c ./StdPeriphDriver/CH57x_sys.o
                0x0000000000001c96                SYS_DisableAllIrq
 .text.SYS_RecoverIrq
                0x0000000000001cb2       0x14 ./StdPeriphDriver/CH57x_sys.o
                0x0000000000001cb2                SYS_RecoverIrq
 .text.SYS_GetSysTickCnt
                0x0000000000001cc6        0xa ./StdPeriphDriver/CH57x_sys.o
                0x0000000000001cc6                SYS_GetSysTickCnt
 .text.Lib_Calibration_LSI
                0x0000000000001cd0       0x2c ./HAL/MCU.o
                0x0000000000001cd0                Lib_Calibration_LSI
 .text.Lib_Read_Flash
                0x0000000000001cfc       0x1c ./HAL/MCU.o
                0x0000000000001cfc                Lib_Read_Flash
 .text.Lib_Write_Flash
                0x0000000000001d18       0x40 ./HAL/MCU.o
                0x0000000000001d18                Lib_Write_Flash
 .text.HAL_GetInterTempValue
                0x0000000000001d58       0x72 ./HAL/MCU.o
                0x0000000000001d58                HAL_GetInterTempValue
 .text.HAL_ProcessEvent
                0x0000000000001dca       0xce ./HAL/MCU.o
                0x0000000000001dca                HAL_ProcessEvent
 .text.CH57X_BLEInit
                0x0000000000001e98      0x118 ./HAL/MCU.o
                0x0000000000001e98                CH57X_BLEInit
 .text.HAL_Init
                0x0000000000001fb0       0x44 ./HAL/MCU.o
                0x0000000000001fb0                HAL_Init
 .text.RTC_SetTignTime
                0x0000000000001ff4       0x20 ./HAL/RTC.o
                0x0000000000001ff4                RTC_SetTignTime
 .text.HAL_TimeInit
                0x0000000000002014       0x5c ./HAL/RTC.o
                0x0000000000002014                HAL_TimeInit
 .text.CH57X_LowPower
                0x0000000000002070       0x96 ./HAL/SLEEP.o
                0x0000000000002070                CH57X_LowPower
 .text.HAL_SleepInit
                0x0000000000002106       0x46 ./HAL/SLEEP.o
                0x0000000000002106                HAL_SleepInit
 .text.I2CInit  0x000000000000214c       0x16 ./APP/I2C.o
                0x000000000000214c                I2CInit
 .text.I2CStart
                0x0000000000002162       0x68 ./APP/I2C.o
                0x0000000000002162                I2CStart
 .text.I2CStop  0x00000000000021ca       0x72 ./APP/I2C.o
                0x00000000000021ca                I2CStop
 .text.I2CWrite
                0x000000000000223c       0xec ./APP/I2C.o
                0x000000000000223c                I2CWrite
 .text.I2CReadACK
                0x0000000000002328       0xdc ./APP/I2C.o
                0x0000000000002328                I2CReadACK
 .text.I2CReadNAK
                0x0000000000002404       0xdc ./APP/I2C.o
                0x0000000000002404                I2CReadNAK
 .text.SHT4XWriteByte
                0x00000000000024e0       0x2e ./APP/SHT4X.o
                0x00000000000024e0                SHT4XWriteByte
 .text.SHT4XReadSerial
                0x000000000000250e       0x50 ./APP/SHT4X.o
                0x000000000000250e                SHT4XReadSerial
 .text.SHT4XReadTemperatureAndHumidity
                0x000000000000255e      0x10e ./APP/SHT4X.o
                0x000000000000255e                SHT4XReadTemperatureAndHumidity
 .text.Broadcaster_StateNotificationCB
                0x000000000000266c        0x2 ./APP/broadcaster.o
 .text.Broadcaster_Init
                0x000000000000266e       0x78 ./APP/broadcaster.o
                0x000000000000266e                Broadcaster_Init
 .text.BatteryMeasuremen
                0x00000000000026e6       0xca ./APP/broadcaster.o
                0x00000000000026e6                BatteryMeasuremen
 .text.Broadcaster_ProcessEvent
                0x00000000000027b0      0x12a ./APP/broadcaster.o
                0x00000000000027b0                Broadcaster_ProcessEvent
 .text.startup.main
                0x00000000000028da       0x44 ./APP/broadcaster_main.o
                0x00000000000028da                main
 .text.tmos_msg_enqueue
                0x000000000000291e       0x1e G:\╄    单片机\WCH\CH573\Projects\CH571_BLE_Hygrothermograph\LIB\libCH57xBLE.a(message.o)
                0x000000000000291e                tmos_msg_enqueue
 .text.tmos_msg_deallocate
                0x000000000000293c       0x2c G:\╄    单片机\WCH\CH573\Projects\CH571_BLE_Hygrothermograph\LIB\libCH57xBLE.a(message.o)
                0x000000000000293c                tmos_msg_deallocate
 .text.tmos_msg_allocate
                0x0000000000002968       0x3e G:\╄    单片机\WCH\CH573\Projects\CH571_BLE_Hygrothermograph\LIB\libCH57xBLE.a(message.o)
                0x0000000000002968                tmos_msg_allocate
 .text.tmos_msg_receive
                0x00000000000029a6       0x68 G:\╄    单片机\WCH\CH573\Projects\CH571_BLE_Hygrothermograph\LIB\libCH57xBLE.a(message.o)
                0x00000000000029a6                tmos_msg_receive
 .text.tmos_msg_send
                0x0000000000002a0e       0x56 G:\╄    单片机\WCH\CH573\Projects\CH571_BLE_Hygrothermograph\LIB\libCH57xBLE.a(message.o)
                0x0000000000002a0e                tmos_msg_send
 .text.tmos_msg_init
                0x0000000000002a64        0x6 G:\╄    单片机\WCH\CH573\Projects\CH571_BLE_Hygrothermograph\LIB\libCH57xBLE.a(message.o)
                0x0000000000002a64                tmos_msg_init
 .text.tmosFindTask
                0x0000000000002a6a       0x20 G:\╄    单片机\WCH\CH573\Projects\CH571_BLE_Hygrothermograph\LIB\libCH57xBLE.a(tmos.o)
 .text.TMOS_CbTimerProcessEvent
                0x0000000000002a8a       0x7c G:\╄    单片机\WCH\CH573\Projects\CH571_BLE_Hygrothermograph\LIB\libCH57xBLE.a(tmos.o)
                0x0000000000002a8a                TMOS_CbTimerProcessEvent
 .text.tmos_rand
                0x0000000000002b06       0x54 G:\╄    单片机\WCH\CH573\Projects\CH571_BLE_Hygrothermograph\LIB\libCH57xBLE.a(tmos.o)
                0x0000000000002b06                tmos_rand
 .text.tmos_query_sleep_time
                0x0000000000002b5a      0x178 G:\╄    单片机\WCH\CH573\Projects\CH571_BLE_Hygrothermograph\LIB\libCH57xBLE.a(tmos.o)
                0x0000000000002b5a                tmos_query_sleep_time
 .text.tmos_memset
                0x0000000000002cd2       0x12 G:\╄    单片机\WCH\CH573\Projects\CH571_BLE_Hygrothermograph\LIB\libCH57xBLE.a(tmos.o)
                0x0000000000002cd2                tmos_memset
 .text.tmos_strlen
                0x0000000000002ce4       0x14 G:\╄    单片机\WCH\CH573\Projects\CH571_BLE_Hygrothermograph\LIB\libCH57xBLE.a(tmos.o)
                0x0000000000002ce4                tmos_strlen
 .text.tmos_memdup
                0x0000000000002cf8       0x3c G:\╄    单片机\WCH\CH573\Projects\CH571_BLE_Hygrothermograph\LIB\libCH57xBLE.a(tmos.o)
                0x0000000000002cf8                tmos_memdup
 .text.tmos_memcmp
                0x0000000000002d34       0x24 G:\╄    单片机\WCH\CH573\Projects\CH571_BLE_Hygrothermograph\LIB\libCH57xBLE.a(tmos.o)
                0x0000000000002d34                tmos_memcmp
 .text.tmos_revmemcpy
                0x0000000000002d58       0x1c G:\╄    单片机\WCH\CH573\Projects\CH571_BLE_Hygrothermograph\LIB\libCH57xBLE.a(tmos.o)
                0x0000000000002d58                tmos_revmemcpy
 .text.tmos_isbufset
                0x0000000000002d74       0x1e G:\╄    单片机\WCH\CH573\Projects\CH571_BLE_Hygrothermograph\LIB\libCH57xBLE.a(tmos.o)
                0x0000000000002d74                tmos_isbufset
 .text.tmos_set_event
                0x0000000000002d92       0x2a G:\╄    单片机\WCH\CH573\Projects\CH571_BLE_Hygrothermograph\LIB\libCH57xBLE.a(tmos.o)
                0x0000000000002d92                tmos_set_event
 .text.tmos_query_system_time
                0x0000000000002dbc       0xce G:\╄    单片机\WCH\CH573\Projects\CH571_BLE_Hygrothermograph\LIB\libCH57xBLE.a(tmos.o)
                0x0000000000002dbc                tmos_query_system_time
 .text.tmos_clear_event
                0x0000000000002e8a       0x2e G:\╄    单片机\WCH\CH573\Projects\CH571_BLE_Hygrothermograph\LIB\libCH57xBLE.a(tmos.o)
                0x0000000000002e8a                tmos_clear_event
 .text.tmos_start_task
                0x0000000000002eb8       0x8e G:\╄    单片机\WCH\CH573\Projects\CH571_BLE_Hygrothermograph\LIB\libCH57xBLE.a(tmos.o)
                0x0000000000002eb8                tmos_start_task
 .text.tmos_start_callback_task
                0x0000000000002f46       0xac G:\╄    单片机\WCH\CH573\Projects\CH571_BLE_Hygrothermograph\LIB\libCH57xBLE.a(tmos.o)
                0x0000000000002f46                tmos_start_callback_task
 .text.tmos_start_reload_task
                0x0000000000002ff2       0x30 G:\╄    单片机\WCH\CH573\Projects\CH571_BLE_Hygrothermograph\LIB\libCH57xBLE.a(tmos.o)
                0x0000000000002ff2                tmos_start_reload_task
 .text.tmos_stop_task
                0x0000000000003022       0x42 G:\╄    单片机\WCH\CH573\Projects\CH571_BLE_Hygrothermograph\LIB\libCH57xBLE.a(tmos.o)
                0x0000000000003022                tmos_stop_task
 .text.tmos_stop_callback_task
                0x0000000000003064       0x5c G:\╄    单片机\WCH\CH573\Projects\CH571_BLE_Hygrothermograph\LIB\libCH57xBLE.a(tmos.o)
                0x0000000000003064                tmos_stop_callback_task
 .text.tmos_get_task_timer
                0x00000000000030c0       0x16 G:\╄    单片机\WCH\CH573\Projects\CH571_BLE_Hygrothermograph\LIB\libCH57xBLE.a(tmos.o)
                0x00000000000030c0                tmos_get_task_timer
 .text.tmos_update_callback_timer
                0x00000000000030d6       0x62 G:\╄    单片机\WCH\CH573\Projects\CH571_BLE_Hygrothermograph\LIB\libCH57xBLE.a(tmos.o)
                0x00000000000030d6                tmos_update_callback_timer
 .text.TMOS_Set32KTuneValue
                0x0000000000003138        0xa G:\╄    单片机\WCH\CH573\Projects\CH571_BLE_Hygrothermograph\LIB\libCH57xBLE.a(tmos.o)
                0x0000000000003138                TMOS_Set32KTuneValue
 .text.TMOS_TimerRegister
                0x0000000000003142       0x1a G:\╄    单片机\WCH\CH573\Projects\CH571_BLE_Hygrothermograph\LIB\libCH57xBLE.a(tmos.o)
                0x0000000000003142                TMOS_TimerRegister
 .text.TMOS_ProcessRegister
                0x000000000000315c       0x16 G:\╄    单片机\WCH\CH573\Projects\CH571_BLE_Hygrothermograph\LIB\libCH57xBLE.a(tmos.o)
                0x000000000000315c                TMOS_ProcessRegister
 .text.TMOS_Init
                0x0000000000003172       0xbe G:\╄    单片机\WCH\CH573\Projects\CH571_BLE_Hygrothermograph\LIB\libCH57xBLE.a(tmos.o)
                0x0000000000003172                TMOS_Init
 .text.TMOS_ProcessEventRegister
                0x0000000000003230       0x38 G:\╄    单片机\WCH\CH573\Projects\CH571_BLE_Hygrothermograph\LIB\libCH57xBLE.a(tmos.o)
                0x0000000000003230                TMOS_ProcessEventRegister
 .text.BLE_LibInit
                0x0000000000003268      0x1a8 G:\╄    单片机\WCH\CH573\Projects\CH571_BLE_Hygrothermograph\LIB\libCH57xBLE.a(tmos.o)
                0x0000000000003268                BLE_LibInit
 .text.ble_ll_common_rand8
                0x0000000000003410       0x24 G:\╄    单片机\WCH\CH573\Projects\CH571_BLE_Hygrothermograph\LIB\libCH57xBLE.a(tmos_hw.o)
                0x0000000000003410                ble_ll_common_rand8
 .text.ble_ll_common_rand16
                0x0000000000003434       0x24 G:\╄    单片机\WCH\CH573\Projects\CH571_BLE_Hygrothermograph\LIB\libCH57xBLE.a(tmos_hw.o)
                0x0000000000003434                ble_ll_common_rand16
 .text.ble_ll_common_rand32
                0x0000000000003458       0x20 G:\╄    单片机\WCH\CH573\Projects\CH571_BLE_Hygrothermograph\LIB\libCH57xBLE.a(tmos_hw.o)
                0x0000000000003458                ble_ll_common_rand32
 .text.ll_hw_temp_sample
                0x0000000000003478       0xc0 G:\╄    单片机\WCH\CH573\Projects\CH571_BLE_Hygrothermograph\LIB\libCH57xBLE.a(tmos_hw.o)
                0x0000000000003478                ll_hw_temp_sample
 .text.TMOS_TimerInit
                0x0000000000003538       0x5c G:\╄    单片机\WCH\CH573\Projects\CH571_BLE_Hygrothermograph\LIB\libCH57xBLE.a(tmos_hw.o)
                0x0000000000003538                TMOS_TimerInit
 .text.tmos_snv_init
                0x0000000000003594       0xbc G:\╄    单片机\WCH\CH573\Projects\CH571_BLE_Hygrothermograph\LIB\libCH57xBLE.a(tmos_snv.o)
                0x0000000000003594                tmos_snv_init
 .text.tmos_snv_clear
                0x0000000000003650       0xae G:\╄    单片机\WCH\CH573\Projects\CH571_BLE_Hygrothermograph\LIB\libCH57xBLE.a(tmos_snv.o)
                0x0000000000003650                tmos_snv_clear
 .text.tmos_snv_read
                0x00000000000036fe      0x292 G:\╄    单片机\WCH\CH573\Projects\CH571_BLE_Hygrothermograph\LIB\libCH57xBLE.a(tmos_snv.o)
                0x00000000000036fe                tmos_snv_read
 .text.tmos_snv_notify
                0x0000000000003990       0x5a G:\╄    单片机\WCH\CH573\Projects\CH571_BLE_Hygrothermograph\LIB\libCH57xBLE.a(tmos_snv.o)
                0x0000000000003990                tmos_snv_notify
 .text.tmos_snv_write
                0x00000000000039ea      0x2ce G:\╄    单片机\WCH\CH573\Projects\CH571_BLE_Hygrothermograph\LIB\libCH57xBLE.a(tmos_snv.o)
                0x00000000000039ea                tmos_snv_write
 .text.tmos_snv_compact
                0x0000000000003cb8        0x4 G:\╄    单片机\WCH\CH573\Projects\CH571_BLE_Hygrothermograph\LIB\libCH57xBLE.a(tmos_snv.o)
                0x0000000000003cb8                tmos_snv_compact
 .text.disconnectNext
                0x0000000000003cbc       0x22 G:\╄    单片机\WCH\CH573\Projects\CH571_BLE_Hygrothermograph\LIB\libCH57xBLE.a(gap.o)
 .text.GAP_ParamInit
                0x0000000000003cde       0x80 G:\╄    单片机\WCH\CH573\Projects\CH571_BLE_Hygrothermograph\LIB\libCH57xBLE.a(gap.o)
                0x0000000000003cde                GAP_ParamInit
 .text.sendTerminateEvent
                0x0000000000003d5e       0x58 G:\╄    单片机\WCH\CH573\Projects\CH571_BLE_Hygrothermograph\LIB\libCH57xBLE.a(gap.o)
                0x0000000000003d5e                sendTerminateEvent
 .text.gapRegisterCentral
                0x0000000000003db6        0x6 G:\╄    单片机\WCH\CH573\Projects\CH571_BLE_Hygrothermograph\LIB\libCH57xBLE.a(gap.o)
                0x0000000000003db6                gapRegisterCentral
 .text.gapRegisterCentralConn
                0x0000000000003dbc        0x6 G:\╄    单片机\WCH\CH573\Projects\CH571_BLE_Hygrothermograph\LIB\libCH57xBLE.a(gap.o)
                0x0000000000003dbc                gapRegisterCentralConn
 .text.gapRegisterPeripheral
                0x0000000000003dc2        0x6 G:\╄    单片机\WCH\CH573\Projects\CH571_BLE_Hygrothermograph\LIB\libCH57xBLE.a(gap.o)
                0x0000000000003dc2                gapRegisterPeripheral
 .text.gapRegisterPeripheralConn
                0x0000000000003dc8        0x6 G:\╄    单片机\WCH\CH573\Projects\CH571_BLE_Hygrothermograph\LIB\libCH57xBLE.a(gap.o)
                0x0000000000003dc8                gapRegisterPeripheralConn
 .text.smGenerateRandBuf
                0x0000000000003dce       0x56 G:\╄    单片机\WCH\CH573\Projects\CH571_BLE_Hygrothermograph\LIB\libCH57xBLE.a(gap.o)
                0x0000000000003dce                smGenerateRandBuf
 .text.gapL2capConnParamUpdateReq
                0x0000000000003e24       0x32 G:\╄    单片机\WCH\CH573\Projects\CH571_BLE_Hygrothermograph\LIB\libCH57xBLE.a(gap.o)
                0x0000000000003e24                gapL2capConnParamUpdateReq
 .text.gapValidADType
                0x0000000000003e56       0x16 G:\╄    单片机\WCH\CH573\Projects\CH571_BLE_Hygrothermograph\LIB\libCH57xBLE.a(gap.o)
                0x0000000000003e56                gapValidADType
 .text.gapFindADType
                0x0000000000003e6c       0x8e G:\╄    单片机\WCH\CH573\Projects\CH571_BLE_Hygrothermograph\LIB\libCH57xBLE.a(gap.o)
                0x0000000000003e6c                gapFindADType
 .text.GAP_SecParamsInit
                0x0000000000003efa       0x9a G:\╄    单片机\WCH\CH573\Projects\CH571_BLE_Hygrothermograph\LIB\libCH57xBLE.a(gap.o)
                0x0000000000003efa                GAP_SecParamsInit
 .text.GAP_ParamsInit
                0x0000000000003f94       0x48 G:\╄    单片机\WCH\CH573\Projects\CH571_BLE_Hygrothermograph\LIB\libCH57xBLE.a(gap.o)
                0x0000000000003f94                GAP_ParamsInit
 .text.gapAddAddrAdj
                0x0000000000003fdc       0x48 G:\╄    单片机\WCH\CH573\Projects\CH571_BLE_Hygrothermograph\LIB\libCH57xBLE.a(gap.o)
                0x0000000000003fdc                gapAddAddrAdj
 .text.gapDetermineAddrType
                0x0000000000004024       0x28 G:\╄    单片机\WCH\CH573\Projects\CH571_BLE_Hygrothermograph\LIB\libCH57xBLE.a(gap.o)
                0x0000000000004024                gapDetermineAddrType
 .text.gapFreeAuthLink
                0x000000000000404c       0x4a G:\╄    单片机\WCH\CH573\Projects\CH571_BLE_Hygrothermograph\LIB\libCH57xBLE.a(gap.o)
                0x000000000000404c                gapFreeAuthLink
 .text.gapGetDevAddress
                0x0000000000004096       0x24 G:\╄    单片机\WCH\CH573\Projects\CH571_BLE_Hygrothermograph\LIB\libCH57xBLE.a(gap.o)
                0x0000000000004096                gapGetDevAddress
 .text.gapGetDevAddressMode
                0x00000000000040ba        0xa G:\╄    单片机\WCH\CH573\Projects\CH571_BLE_Hygrothermograph\LIB\libCH57xBLE.a(gap.o)
                0x00000000000040ba                gapGetDevAddressMode
 .text.gapGetIRK
                0x00000000000040c4        0xc G:\╄    单片机\WCH\CH573\Projects\CH571_BLE_Hygrothermograph\LIB\libCH57xBLE.a(gap.o)
                0x00000000000040c4                gapGetIRK
 .text.gapGetSRK
                0x00000000000040d0        0xc G:\╄    单片机\WCH\CH573\Projects\CH571_BLE_Hygrothermograph\LIB\libCH57xBLE.a(gap.o)
                0x00000000000040d0                gapGetSRK
 .text.gapGetSignCounter
                0x00000000000040dc        0xe G:\╄    单片机\WCH\CH573\Projects\CH571_BLE_Hygrothermograph\LIB\libCH57xBLE.a(gap.o)
                0x00000000000040dc                gapGetSignCounter
 .text.gapIncSignCounter
                0x00000000000040ea       0x28 G:\╄    单片机\WCH\CH573\Projects\CH571_BLE_Hygrothermograph\LIB\libCH57xBLE.a(gap.o)
                0x00000000000040ea                gapIncSignCounter
 .text.gapProcessConnEvt
                0x0000000000004112       0x48 G:\╄    单片机\WCH\CH573\Projects\CH571_BLE_Hygrothermograph\LIB\libCH57xBLE.a(gap.o)
                0x0000000000004112                gapProcessConnEvt
 .text.gapProcessDisconnectCompleteEvt
                0x000000000000415a       0xa8 G:\╄    单片机\WCH\CH573\Projects\CH571_BLE_Hygrothermograph\LIB\libCH57xBLE.a(gap.o)
                0x000000000000415a                gapProcessDisconnectCompleteEvt
 .text.sendAuthEvent
                0x0000000000004202      0x11a G:\╄    单片机\WCH\CH573\Projects\CH571_BLE_Hygrothermograph\LIB\libCH57xBLE.a(gap.o)
                0x0000000000004202                sendAuthEvent
 .text.gapSendBondCompleteEvent
                0x000000000000431c       0x70 G:\╄    单片机\WCH\CH573\Projects\CH571_BLE_Hygrothermograph\LIB\libCH57xBLE.a(gap.o)
                0x000000000000431c                gapSendBondCompleteEvent
 .text.gapSendPairingReqEvent
                0x000000000000438c       0x92 G:\╄    单片机\WCH\CH573\Projects\CH571_BLE_Hygrothermograph\LIB\libCH57xBLE.a(gap.o)
                0x000000000000438c                gapSendPairingReqEvent
 .text.gapSendSlaveSecurityReqEvent
                0x000000000000441e       0x68 G:\╄    单片机\WCH\CH573\Projects\CH571_BLE_Hygrothermograph\LIB\libCH57xBLE.a(gap.o)
                0x000000000000441e                gapSendSlaveSecurityReqEvent
 .text.gapSendDeviceInitDoneEvent
                0x0000000000004486       0x88 G:\╄    单片机\WCH\CH573\Projects\CH571_BLE_Hygrothermograph\LIB\libCH57xBLE.a(gap.o)
                0x0000000000004486                gapSendDeviceInitDoneEvent
 .text.gapSendLinkUpdateEvent
                0x000000000000450e       0x84 G:\╄    单片机\WCH\CH573\Projects\CH571_BLE_Hygrothermograph\LIB\libCH57xBLE.a(gap.o)
                0x000000000000450e                gapSendLinkUpdateEvent
 .text.gapSendEstLinkEvent
                0x0000000000004592       0xb8 G:\╄    单片机\WCH\CH573\Projects\CH571_BLE_Hygrothermograph\LIB\libCH57xBLE.a(gap.o)
                0x0000000000004592                gapSendEstLinkEvent
 .text.gapProcessNewAddr
                0x000000000000464a       0x3e G:\╄    单片机\WCH\CH573\Projects\CH571_BLE_Hygrothermograph\LIB\libCH57xBLE.a(gap.o)
                0x000000000000464a                gapProcessNewAddr
 .text.gapProcessRandomAddrComplete
                0x0000000000004688       0xb6 G:\╄    单片机\WCH\CH573\Projects\CH571_BLE_Hygrothermograph\LIB\libCH57xBLE.a(gap.o)
                0x0000000000004688                gapProcessRandomAddrComplete
 .text.GAP_Authenticate
                0x000000000000473e       0xd2 G:\╄    单片机\WCH\CH573\Projects\CH571_BLE_Hygrothermograph\LIB\libCH57xBLE.a(gap.o)
                0x000000000000473e                GAP_Authenticate
 .text.GAP_Bond
                0x0000000000004810       0xa2 G:\╄    单片机\WCH\CH573\Projects\CH571_BLE_Hygrothermograph\LIB\libCH57xBLE.a(gap.o)
                0x0000000000004810                GAP_Bond
 .text.GAP_GetParamValue
                0x00000000000048b2       0x1e G:\╄    单片机\WCH\CH573\Projects\CH571_BLE_Hygrothermograph\LIB\libCH57xBLE.a(gap.o)
                0x00000000000048b2                GAP_GetParamValue
 .text.GAP_PasscodeUpdate
                0x00000000000048d0       0x50 G:\╄    单片机\WCH\CH573\Projects\CH571_BLE_Hygrothermograph\LIB\libCH57xBLE.a(gap.o)
                0x00000000000048d0                GAP_PasscodeUpdate
 .text.GAP_RegisterForMsgs
                0x0000000000004920        0x6 G:\╄    单片机\WCH\CH573\Projects\CH571_BLE_Hygrothermograph\LIB\libCH57xBLE.a(gap.o)
                0x0000000000004920                GAP_RegisterForMsgs
 .text.GAP_ResolvePrivateAddr
                0x0000000000004926        0x4 G:\╄    单片机\WCH\CH573\Projects\CH571_BLE_Hygrothermograph\LIB\libCH57xBLE.a(gap.o)
                0x0000000000004926                GAP_ResolvePrivateAddr
 .text.gapPairingCompleteCB
                0x000000000000492a      0x188 G:\╄    单片机\WCH\CH573\Projects\CH571_BLE_Hygrothermograph\LIB\libCH57xBLE.a(gap.o)
                0x000000000000492a                gapPairingCompleteCB
 .text.gapPasskeyNeededCB
                0x0000000000004ab2       0x8e G:\╄    单片机\WCH\CH573\Projects\CH571_BLE_Hygrothermograph\LIB\libCH57xBLE.a(gap.o)
                0x0000000000004ab2                gapPasskeyNeededCB
 .text.gapFreeEstLink
                0x0000000000004b40       0x20 G:\╄    单片机\WCH\CH573\Projects\CH571_BLE_Hygrothermograph\LIB\libCH57xBLE.a(gap.o)
                0x0000000000004b40                gapFreeEstLink
 .text.gapUpdateConnSignCounter
                0x0000000000004b60       0x7a G:\╄    单片机\WCH\CH573\Projects\CH571_BLE_Hygrothermograph\LIB\libCH57xBLE.a(gap.o)
                0x0000000000004b60                gapUpdateConnSignCounter
 .text.GAP_TerminateAuth
                0x0000000000004bda       0x2a G:\╄    单片机\WCH\CH573\Projects\CH571_BLE_Hygrothermograph\LIB\libCH57xBLE.a(gap.o)
                0x0000000000004bda                GAP_TerminateAuth
 .text.GAP_NumActiveConnections
                0x0000000000004c04        0x4 G:\╄    单片机\WCH\CH573\Projects\CH571_BLE_Hygrothermograph\LIB\libCH57xBLE.a(gap.o)
                0x0000000000004c04                GAP_NumActiveConnections
 .text.GAP_TerminateLinkReq
                0x0000000000004c08       0x8e G:\╄    单片机\WCH\CH573\Projects\CH571_BLE_Hygrothermograph\LIB\libCH57xBLE.a(gap.o)
                0x0000000000004c08                GAP_TerminateLinkReq
 .text.GAP_SetParamValue
                0x0000000000004c96       0x4a G:\╄    单片机\WCH\CH573\Projects\CH571_BLE_Hygrothermograph\LIB\libCH57xBLE.a(gap.o)
                0x0000000000004c96                GAP_SetParamValue
 .text.GAP_Init
                0x0000000000004ce0       0x44 G:\╄    单片机\WCH\CH573\Projects\CH571_BLE_Hygrothermograph\LIB\libCH57xBLE.a(gap.o)
                0x0000000000004ce0                GAP_Init
 .text.GAP_ProcessEvent
                0x0000000000004d24      0x578 G:\╄    单片机\WCH\CH573\Projects\CH571_BLE_Hygrothermograph\LIB\libCH57xBLE.a(gap.o)
                0x0000000000004d24                GAP_ProcessEvent
 .text.gapSendScanEnable
                0x000000000000529c       0x1e G:\╄    单片机\WCH\CH573\Projects\CH571_BLE_Hygrothermograph\LIB\libCH57xBLE.a(gap_central.o)
 .text.gapCentProcessConnEvt
                0x00000000000052ba      0x148 G:\╄    单片机\WCH\CH573\Projects\CH571_BLE_Hygrothermograph\LIB\libCH57xBLE.a(gap_central.o)
                0x00000000000052ba                gapCentProcessConnEvt
 .text.gapCancelLinkReq
                0x0000000000005402       0x38 G:\╄    单片机\WCH\CH573\Projects\CH571_BLE_Hygrothermograph\LIB\libCH57xBLE.a(gap_central.o)
                0x0000000000005402                gapCancelLinkReq
 .text.GAP_CentralParamInit
                0x000000000000543a       0x4c G:\╄    单片机\WCH\CH573\Projects\CH571_BLE_Hygrothermograph\LIB\libCH57xBLE.a(gap_central.o)
                0x000000000000543a                GAP_CentralParamInit
 .text.gapProcessAdvertDevInfo
                0x0000000000005486      0x23a G:\╄    单片机\WCH\CH573\Projects\CH571_BLE_Hygrothermograph\LIB\libCH57xBLE.a(gap_central.o)
                0x0000000000005486                gapProcessAdvertDevInfo
 .text.gapFreeScanRecs
                0x00000000000056c0       0xa2 G:\╄    单片机\WCH\CH573\Projects\CH571_BLE_Hygrothermograph\LIB\libCH57xBLE.a(gap_central.o)
                0x00000000000056c0                gapFreeScanRecs
 .text.gapSendDevDiscEvent
                0x0000000000005762      0x124 G:\╄    单片机\WCH\CH573\Projects\CH571_BLE_Hygrothermograph\LIB\libCH57xBLE.a(gap_central.o)
                0x0000000000005762                gapSendDevDiscEvent
 .text.gapSetScanParamStatus.part.2
                0x0000000000005886       0x40 G:\╄    单片机\WCH\CH573\Projects\CH571_BLE_Hygrothermograph\LIB\libCH57xBLE.a(gap_central.o)
 .text.gapCentProcessHCICmdEvt
                0x00000000000058c6       0x3c G:\╄    单片机\WCH\CH573\Projects\CH571_BLE_Hygrothermograph\LIB\libCH57xBLE.a(gap_central.o)
                0x00000000000058c6                gapCentProcessHCICmdEvt
 .text.gapProcessScanningEvt
                0x0000000000005902      0x110 G:\╄    单片机\WCH\CH573\Projects\CH571_BLE_Hygrothermograph\LIB\libCH57xBLE.a(gap_central.o)
                0x0000000000005902                gapProcessScanningEvt
 .text.gapProcessScanningDirectEvt
                0x0000000000005a12       0xfe G:\╄    单片机\WCH\CH573\Projects\CH571_BLE_Hygrothermograph\LIB\libCH57xBLE.a(gap_central.o)
                0x0000000000005a12                gapProcessScanningDirectEvt
 .text.GAP_CentConnRegister
                0x0000000000005b10       0x12 G:\╄    单片机\WCH\CH573\Projects\CH571_BLE_Hygrothermograph\LIB\libCH57xBLE.a(gap_central.o)
                0x0000000000005b10                GAP_CentConnRegister
 .text.GAP_CentDevMgrInit
                0x0000000000005b22       0x94 G:\╄    单片机\WCH\CH573\Projects\CH571_BLE_Hygrothermograph\LIB\libCH57xBLE.a(gap_central.o)
                0x0000000000005b22                GAP_CentDevMgrInit
 .text.gapFreeAdvertState
                0x0000000000005bb6       0x20 G:\╄    单片机\WCH\CH573\Projects\CH571_BLE_Hygrothermograph\LIB\libCH57xBLE.a(gap_peripheral.o)
 .text.gapPeriProcessConnEvt
                0x0000000000005bd6       0xbc G:\╄    单片机\WCH\CH573\Projects\CH571_BLE_Hygrothermograph\LIB\libCH57xBLE.a(gap_peripheral.o)
 .text.gapSetAdvParams
                0x0000000000005c92       0x7e G:\╄    单片机\WCH\CH573\Projects\CH571_BLE_Hygrothermograph\LIB\libCH57xBLE.a(gap_peripheral.o)
 .text.GAP_PeripheralParamInit
                0x0000000000005d10       0x4a G:\╄    单片机\WCH\CH573\Projects\CH571_BLE_Hygrothermograph\LIB\libCH57xBLE.a(gap_peripheral.o)
                0x0000000000005d10                GAP_PeripheralParamInit
 .text.gapSendMakeDiscEvent
                0x0000000000005d5a       0x4e G:\╄    单片机\WCH\CH573\Projects\CH571_BLE_Hygrothermograph\LIB\libCH57xBLE.a(gap_peripheral.o)
                0x0000000000005d5a                gapSendMakeDiscEvent
 .text.gapPeriProcessHCICmdCompleteEvt
                0x0000000000005da8      0x190 G:\╄    单片机\WCH\CH573\Projects\CH571_BLE_Hygrothermograph\LIB\libCH57xBLE.a(gap_peripheral.o)
 .text.GAP_MakeDiscoverable
                0x0000000000005f38       0xf0 G:\╄    单片机\WCH\CH573\Projects\CH571_BLE_Hygrothermograph\LIB\libCH57xBLE.a(gap_peripheral.o)
                0x0000000000005f38                GAP_MakeDiscoverable
 .text.GAP_EndDiscoverable
                0x0000000000006028       0x5c G:\╄    单片机\WCH\CH573\Projects\CH571_BLE_Hygrothermograph\LIB\libCH57xBLE.a(gap_peripheral.o)
                0x0000000000006028                GAP_EndDiscoverable
 .text.gapProcessAdvertisingEvt
                0x0000000000006084       0x8e G:\╄    单片机\WCH\CH573\Projects\CH571_BLE_Hygrothermograph\LIB\libCH57xBLE.a(gap_peripheral.o)
 .text.GAP_UpdateAdvertisingData
                0x0000000000006112       0xb8 G:\╄    单片机\WCH\CH573\Projects\CH571_BLE_Hygrothermograph\LIB\libCH57xBLE.a(gap_peripheral.o)
                0x0000000000006112                GAP_UpdateAdvertisingData
 .text.GAP_PeriConnRegister
                0x00000000000061ca       0x2a G:\╄    单片机\WCH\CH573\Projects\CH571_BLE_Hygrothermograph\LIB\libCH57xBLE.a(gap_peripheral.o)
                0x00000000000061ca                GAP_PeriConnRegister
 .text.GAP_PeriDevMgrInit
                0x00000000000061f4       0xbc G:\╄    单片机\WCH\CH573\Projects\CH571_BLE_Hygrothermograph\LIB\libCH57xBLE.a(gap_peripheral.o)
                0x00000000000061f4                GAP_PeriDevMgrInit
 .text.gattProcessExchangeMTUReq
                0x00000000000062b0        0x4 G:\╄    单片机\WCH\CH573\Projects\CH571_BLE_Hygrothermograph\LIB\libCH57xBLE.a(gattservapp.o)
 .text.gattServApp_FindCharCfgItem
                0x00000000000062b4       0x20 G:\╄    单片机\WCH\CH573\Projects\CH571_BLE_Hygrothermograph\LIB\libCH57xBLE.a(gattservapp.o)
 .text.gattServerHandleTimerCB
                0x00000000000062d4       0x3c G:\╄    单片机\WCH\CH573\Projects\CH571_BLE_Hygrothermograph\LIB\libCH57xBLE.a(gattservapp.o)
 .text.GATTServApp_InitCharCfg.part.12
                0x0000000000006310       0x1c G:\╄    单片机\WCH\CH573\Projects\CH571_BLE_Hygrothermograph\LIB\libCH57xBLE.a(gattservapp.o)
 .text.gattProcessExecuteWriteReq
                0x000000000000632c        0x4 G:\╄    单片机\WCH\CH573\Projects\CH571_BLE_Hygrothermograph\LIB\libCH57xBLE.a(gattservapp.o)
 .text.GATTServApp_ParamInit
                0x0000000000006330       0xd4 G:\╄    单片机\WCH\CH573\Projects\CH571_BLE_Hygrothermograph\LIB\libCH57xBLE.a(gattservapp.o)
                0x0000000000006330                GATTServApp_ParamInit
 .text.GATTServApp_ReadCharCfg
                0x0000000000006404       0x16 G:\╄    单片机\WCH\CH573\Projects\CH571_BLE_Hygrothermograph\LIB\libCH57xBLE.a(gattservapp.o)
                0x0000000000006404                GATTServApp_ReadCharCfg
 .text.GATTServApp_WriteCharCfg
                0x000000000000641a       0x3c G:\╄    单片机\WCH\CH573\Projects\CH571_BLE_Hygrothermograph\LIB\libCH57xBLE.a(gattservapp.o)
                0x000000000000641a                GATTServApp_WriteCharCfg
 .text.GATTServApp_ProcessCCCWriteReq
                0x0000000000006456       0x5c G:\╄    单片机\WCH\CH573\Projects\CH571_BLE_Hygrothermograph\LIB\libCH57xBLE.a(gattservapp.o)
                0x0000000000006456                GATTServApp_ProcessCCCWriteReq
 .text.gattServApp_WriteAttrCB
                0x00000000000064b2       0x32 G:\╄    单片机\WCH\CH573\Projects\CH571_BLE_Hygrothermograph\LIB\libCH57xBLE.a(gattservapp.o)
                0x00000000000064b2                gattServApp_WriteAttrCB
 .text.GATTServApp_SendCCCUpdatedEvent
                0x00000000000064e4       0x5e G:\╄    单片机\WCH\CH573\Projects\CH571_BLE_Hygrothermograph\LIB\libCH57xBLE.a(gattservapp.o)
                0x00000000000064e4                GATTServApp_SendCCCUpdatedEvent
 .text.GATTServApp_SendServiceChangedInd
                0x0000000000006542       0x34 G:\╄    单片机\WCH\CH573\Projects\CH571_BLE_Hygrothermograph\LIB\libCH57xBLE.a(gattservapp.o)
                0x0000000000006542                GATTServApp_SendServiceChangedInd
 .text.gattServApp_ClearPrepareWriteQ
                0x0000000000006576       0x4c G:\╄    单片机\WCH\CH573\Projects\CH571_BLE_Hygrothermograph\LIB\libCH57xBLE.a(gattservapp.o)
                0x0000000000006576                gattServApp_ClearPrepareWriteQ
 .text.gattServApp_FindPrepareWriteQ
                0x00000000000065c2       0x2c G:\╄    单片机\WCH\CH573\Projects\CH571_BLE_Hygrothermograph\LIB\libCH57xBLE.a(gattservapp.o)
                0x00000000000065c2                gattServApp_FindPrepareWriteQ
 .text.gattServApp_FindServiceCBs
                0x00000000000065ee       0x18 G:\╄    单片机\WCH\CH573\Projects\CH571_BLE_Hygrothermograph\LIB\libCH57xBLE.a(gattservapp.o)
                0x00000000000065ee                gattServApp_FindServiceCBs
 .text.gattServApp_FindAuthorizeAttrCB
                0x0000000000006606       0x14 G:\╄    单片机\WCH\CH573\Projects\CH571_BLE_Hygrothermograph\LIB\libCH57xBLE.a(gattservapp.o)
                0x0000000000006606                gattServApp_FindAuthorizeAttrCB
 .text.gattServApp_IsWriteLong
                0x000000000000661a       0xe6 G:\╄    单片机\WCH\CH573\Projects\CH571_BLE_Hygrothermograph\LIB\libCH57xBLE.a(gattservapp.o)
                0x000000000000661a                gattServApp_IsWriteLong
 .text.gattFindService
                0x0000000000006700       0x1c G:\╄    单片机\WCH\CH573\Projects\CH571_BLE_Hygrothermograph\LIB\libCH57xBLE.a(gattservapp.o)
                0x0000000000006700                gattFindService
 .text.GATT_ServiceNumAttrs
                0x000000000000671c       0x16 G:\╄    单片机\WCH\CH573\Projects\CH571_BLE_Hygrothermograph\LIB\libCH57xBLE.a(gattservapp.o)
                0x000000000000671c                GATT_ServiceNumAttrs
 .text.GATT_ServiceEncKeySize
                0x0000000000006732       0x16 G:\╄    单片机\WCH\CH573\Projects\CH571_BLE_Hygrothermograph\LIB\libCH57xBLE.a(gattservapp.o)
                0x0000000000006732                GATT_ServiceEncKeySize
 .text.GATT_VerifyWritePermissions.part.7
                0x0000000000006748       0x2c G:\╄    单片机\WCH\CH573\Projects\CH571_BLE_Hygrothermograph\LIB\libCH57xBLE.a(gattservapp.o)
 .text.gattResetServerInfo
                0x0000000000006774       0x1c G:\╄    单片机\WCH\CH573\Projects\CH571_BLE_Hygrothermograph\LIB\libCH57xBLE.a(gattservapp.o)
                0x0000000000006774                gattResetServerInfo
 .text.gattFindServerInfo
                0x0000000000006790       0x26 G:\╄    单片机\WCH\CH573\Projects\CH571_BLE_Hygrothermograph\LIB\libCH57xBLE.a(gattservapp.o)
                0x0000000000006790                gattFindServerInfo
 .text.gattServerHandleConnStatusCB
                0x00000000000067b6       0x8e G:\╄    单片机\WCH\CH573\Projects\CH571_BLE_Hygrothermograph\LIB\libCH57xBLE.a(gattservapp.o)
                0x00000000000067b6                gattServerHandleConnStatusCB
 .text.gattServerProcessMsgCB
                0x0000000000006844      0x1be G:\╄    单片机\WCH\CH573\Projects\CH571_BLE_Hygrothermograph\LIB\libCH57xBLE.a(gattservapp.o)
                0x0000000000006844                gattServerProcessMsgCB
 .text.gattServerNotifyTxCB
                0x0000000000006a02       0x28 G:\╄    单片机\WCH\CH573\Projects\CH571_BLE_Hygrothermograph\LIB\libCH57xBLE.a(gattservapp.o)
 .text.GATT_FindHandle
                0x0000000000006a2a       0x4a G:\╄    单片机\WCH\CH573\Projects\CH571_BLE_Hygrothermograph\LIB\libCH57xBLE.a(gattservapp.o)
                0x0000000000006a2a                GATT_FindHandle
 .text.GATTServApp_WriteAttr
                0x0000000000006a74       0xa6 G:\╄    单片机\WCH\CH573\Projects\CH571_BLE_Hygrothermograph\LIB\libCH57xBLE.a(gattservapp.o)
                0x0000000000006a74                GATTServApp_WriteAttr
 .text.gattServApp_ProcessExecuteWriteReq
                0x0000000000006b1a      0x100 G:\╄    单片机\WCH\CH573\Projects\CH571_BLE_Hygrothermograph\LIB\libCH57xBLE.a(gattservapp.o)
                0x0000000000006b1a                gattServApp_ProcessExecuteWriteReq
 .text.gattServApp_ProcessPrepareWriteReq
                0x0000000000006c1a      0x10e G:\╄    单片机\WCH\CH573\Projects\CH571_BLE_Hygrothermograph\LIB\libCH57xBLE.a(gattservapp.o)
                0x0000000000006c1a                gattServApp_ProcessPrepareWriteReq
 .text.gattServApp_ProcessWriteReq
                0x0000000000006d28       0xb0 G:\╄    单片机\WCH\CH573\Projects\CH571_BLE_Hygrothermograph\LIB\libCH57xBLE.a(gattservapp.o)
                0x0000000000006d28                gattServApp_ProcessWriteReq
 .text.GATT_Indication
                0x0000000000006dd8       0xa4 G:\╄    单片机\WCH\CH573\Projects\CH571_BLE_Hygrothermograph\LIB\libCH57xBLE.a(gattservapp.o)
                0x0000000000006dd8                GATT_Indication
 .text.GATT_FindHandleUUID
                0x0000000000006e7c       0x94 G:\╄    单片机\WCH\CH573\Projects\CH571_BLE_Hygrothermograph\LIB\libCH57xBLE.a(gattservapp.o)
                0x0000000000006e7c                GATT_FindHandleUUID
 .text.gattProcessReadByGrpTypeReq
                0x0000000000006f10       0x60 G:\╄    单片机\WCH\CH573\Projects\CH571_BLE_Hygrothermograph\LIB\libCH57xBLE.a(gattservapp.o)
 .text.gattProcessReadByTypeReq
                0x0000000000006f70       0x34 G:\╄    单片机\WCH\CH573\Projects\CH571_BLE_Hygrothermograph\LIB\libCH57xBLE.a(gattservapp.o)
 .text.gattProcessFindByTypeValueReq
                0x0000000000006fa4       0x34 G:\╄    单片机\WCH\CH573\Projects\CH571_BLE_Hygrothermograph\LIB\libCH57xBLE.a(gattservapp.o)
 .text.gattProcessFindInfoReq
                0x0000000000006fd8      0x1aa G:\╄    单片机\WCH\CH573\Projects\CH571_BLE_Hygrothermograph\LIB\libCH57xBLE.a(gattservapp.o)
 .text.GATT_VerifyWritePermissions
                0x0000000000007182       0x6a G:\╄    单片机\WCH\CH573\Projects\CH571_BLE_Hygrothermograph\LIB\libCH57xBLE.a(gattservapp.o)
                0x0000000000007182                GATT_VerifyWritePermissions
 .text.gattProcessWriteReq
                0x00000000000071ec       0x36 G:\╄    单片机\WCH\CH573\Projects\CH571_BLE_Hygrothermograph\LIB\libCH57xBLE.a(gattservapp.o)
 .text.GATT_VerifyPrepareWritePermissions
                0x0000000000007222       0x56 G:\╄    单片机\WCH\CH573\Projects\CH571_BLE_Hygrothermograph\LIB\libCH57xBLE.a(gattservapp.o)
                0x0000000000007222                GATT_VerifyPrepareWritePermissions
 .text.gattProcessPrepareWriteReq
                0x0000000000007278       0x36 G:\╄    单片机\WCH\CH573\Projects\CH571_BLE_Hygrothermograph\LIB\libCH57xBLE.a(gattservapp.o)
 .text.GATT_FindNextAttr
                0x00000000000072ae       0xc2 G:\╄    单片机\WCH\CH573\Projects\CH571_BLE_Hygrothermograph\LIB\libCH57xBLE.a(gattservapp.o)
                0x00000000000072ae                GATT_FindNextAttr
 .text.GATTServApp_ReadAttr
                0x0000000000007370      0x2e2 G:\╄    单片机\WCH\CH573\Projects\CH571_BLE_Hygrothermograph\LIB\libCH57xBLE.a(gattservapp.o)
                0x0000000000007370                GATTServApp_ReadAttr
 .text.gattServApp_ProcessReadMultiReq
                0x0000000000007652      0x16e G:\╄    单片机\WCH\CH573\Projects\CH571_BLE_Hygrothermograph\LIB\libCH57xBLE.a(gattservapp.o)
                0x0000000000007652                gattServApp_ProcessReadMultiReq
 .text.gattServApp_ProcessFindByTypeValueReq
                0x00000000000077c0      0x19c G:\╄    单片机\WCH\CH573\Projects\CH571_BLE_Hygrothermograph\LIB\libCH57xBLE.a(gattservapp.o)
                0x00000000000077c0                gattServApp_ProcessFindByTypeValueReq
 .text.GATT_VerifyReadPermissions
                0x000000000000795c       0x68 G:\╄    单片机\WCH\CH573\Projects\CH571_BLE_Hygrothermograph\LIB\libCH57xBLE.a(gattservapp.o)
                0x000000000000795c                GATT_VerifyReadPermissions
 .text.gattProcessReadMultiReq
                0x00000000000079c4       0xae G:\╄    单片机\WCH\CH573\Projects\CH571_BLE_Hygrothermograph\LIB\libCH57xBLE.a(gattservapp.o)
 .text.gattProcessReadReq
                0x0000000000007a72       0x30 G:\╄    单片机\WCH\CH573\Projects\CH571_BLE_Hygrothermograph\LIB\libCH57xBLE.a(gattservapp.o)
 .text.gattServApp_ProcessReadByGrpTypeReq
                0x0000000000007aa2      0x21c G:\╄    单片机\WCH\CH573\Projects\CH571_BLE_Hygrothermograph\LIB\libCH57xBLE.a(gattservapp.o)
                0x0000000000007aa2                gattServApp_ProcessReadByGrpTypeReq
 .text.gattServApp_ProcessReadByTypeReq
                0x0000000000007cbe      0x1ae G:\╄    单片机\WCH\CH573\Projects\CH571_BLE_Hygrothermograph\LIB\libCH57xBLE.a(gattservapp.o)
                0x0000000000007cbe                gattServApp_ProcessReadByTypeReq
 .text.GATTServApp_InitCharCfg
                0x0000000000007e6c       0x28 G:\╄    单片机\WCH\CH573\Projects\CH571_BLE_Hygrothermograph\LIB\libCH57xBLE.a(gattservapp.o)
                0x0000000000007e6c                GATTServApp_InitCharCfg
 .text.gattServApp_HandleConnStatusCB
                0x0000000000007e94       0x74 G:\╄    单片机\WCH\CH573\Projects\CH571_BLE_Hygrothermograph\LIB\libCH57xBLE.a(gattservapp.o)
                0x0000000000007e94                gattServApp_HandleConnStatusCB
 .text.GATT_InitServer
                0x0000000000007f08       0xf2 G:\╄    单片机\WCH\CH573\Projects\CH571_BLE_Hygrothermograph\LIB\libCH57xBLE.a(gattservapp.o)
                0x0000000000007f08                GATT_InitServer
 .text.GATTServApp_Init
                0x0000000000007ffa       0x34 G:\╄    单片机\WCH\CH573\Projects\CH571_BLE_Hygrothermograph\LIB\libCH57xBLE.a(gattservapp.o)
                0x0000000000007ffa                GATTServApp_Init
 .text.GATTServApp_ProcessEvent
                0x000000000000802e      0x366 G:\╄    单片机\WCH\CH573\Projects\CH571_BLE_Hygrothermograph\LIB\libCH57xBLE.a(gattservapp.o)
                0x000000000000802e                GATTServApp_ProcessEvent
 .text.l2capAllocConnChannel
                0x0000000000008394       0xd8 G:\╄    单片机\WCH\CH573\Projects\CH571_BLE_Hygrothermograph\LIB\libCH57xBLE.a(l2cap.o)
                0x0000000000008394                l2capAllocConnChannel
 .text.l2capFindLocalCID
                0x000000000000846c       0x2c G:\╄    单片机\WCH\CH573\Projects\CH571_BLE_Hygrothermograph\LIB\libCH57xBLE.a(l2cap.o)
                0x000000000000846c                l2capFindLocalCID
 .text.l2capFindLocalId
                0x0000000000008498       0x30 G:\╄    单片机\WCH\CH573\Projects\CH571_BLE_Hygrothermograph\LIB\libCH57xBLE.a(l2cap.o)
                0x0000000000008498                l2capFindLocalId
 .text.l2capFindPsm
                0x00000000000084c8       0x2c G:\╄    单片机\WCH\CH573\Projects\CH571_BLE_Hygrothermograph\LIB\libCH57xBLE.a(l2cap.o)
                0x00000000000084c8                l2capFindPsm
 .text.l2capFindRemoteCID
                0x00000000000084f4       0x3c G:\╄    单片机\WCH\CH573\Projects\CH571_BLE_Hygrothermograph\LIB\libCH57xBLE.a(l2cap.o)
                0x00000000000084f4                l2capFindRemoteCID
 .text.l2capFreeChannel
                0x0000000000008530       0x4a G:\╄    单片机\WCH\CH573\Projects\CH571_BLE_Hygrothermograph\LIB\libCH57xBLE.a(l2cap.o)
                0x0000000000008530                l2capFreeChannel
 .text.l2capDisconnectChannel
                0x000000000000857a       0x28 G:\╄    单片机\WCH\CH573\Projects\CH571_BLE_Hygrothermograph\LIB\libCH57xBLE.a(l2cap.o)
                0x000000000000857a                l2capDisconnectChannel
 .text.l2capHandleTimerCB
                0x00000000000085a2       0x2c G:\╄    单片机\WCH\CH573\Projects\CH571_BLE_Hygrothermograph\LIB\libCH57xBLE.a(l2cap.o)
                0x00000000000085a2                l2capHandleTimerCB
 .text.l2capFreePendingPkt
                0x00000000000085ce       0x58 G:\╄    单片机\WCH\CH573\Projects\CH571_BLE_Hygrothermograph\LIB\libCH57xBLE.a(l2cap.o)
                0x00000000000085ce                l2capFreePendingPkt
 .text.l2capGetCoChannelInfo
                0x0000000000008626       0x7e G:\╄    单片机\WCH\CH573\Projects\CH571_BLE_Hygrothermograph\LIB\libCH57xBLE.a(l2cap.o)
                0x0000000000008626                l2capGetCoChannelInfo
 .text.l2capNumActiveChannnels
                0x00000000000086a4       0x44 G:\╄    单片机\WCH\CH573\Projects\CH571_BLE_Hygrothermograph\LIB\libCH57xBLE.a(l2cap.o)
                0x00000000000086a4                l2capNumActiveChannnels
 .text.l2capStartTimer
                0x00000000000086e8       0x1a G:\╄    单片机\WCH\CH573\Projects\CH571_BLE_Hygrothermograph\LIB\libCH57xBLE.a(l2cap.o)
                0x00000000000086e8                l2capStartTimer
 .text.l2capStopTimer
                0x0000000000008702       0x1e G:\╄    单片机\WCH\CH573\Projects\CH571_BLE_Hygrothermograph\LIB\libCH57xBLE.a(l2cap.o)
                0x0000000000008702                l2capStopTimer
 .text.l2capDisconnectAllChannels
                0x0000000000008720       0xdc G:\╄    单片机\WCH\CH573\Projects\CH571_BLE_Hygrothermograph\LIB\libCH57xBLE.a(l2cap.o)
                0x0000000000008720                l2capDisconnectAllChannels
 .text.l2capHandleConnStatusCB
                0x00000000000087fc       0x3c G:\╄    单片机\WCH\CH573\Projects\CH571_BLE_Hygrothermograph\LIB\libCH57xBLE.a(l2cap.o)
                0x00000000000087fc                l2capHandleConnStatusCB
 .text.l2capHandleRxError
                0x0000000000008838        0x6 G:\╄    单片机\WCH\CH573\Projects\CH571_BLE_Hygrothermograph\LIB\libCH57xBLE.a(l2cap.o)
                0x0000000000008838                l2capHandleRxError
 .text.L2CAP_GetMTU
                0x000000000000883e        0x6 G:\╄    单片机\WCH\CH573\Projects\CH571_BLE_Hygrothermograph\LIB\libCH57xBLE.a(l2cap.o)
                0x000000000000883e                L2CAP_GetMTU
 .text.L2CAP_HostNumCompletedPkts
                0x0000000000008844       0x28 G:\╄    单片机\WCH\CH573\Projects\CH571_BLE_Hygrothermograph\LIB\libCH57xBLE.a(l2cap.o)
                0x0000000000008844                L2CAP_HostNumCompletedPkts
 .text.L2CAP_ParseConnectReq
                0x000000000000886c       0x5e G:\╄    单片机\WCH\CH573\Projects\CH571_BLE_Hygrothermograph\LIB\libCH57xBLE.a(l2cap.o)
                0x000000000000886c                L2CAP_ParseConnectReq
 .text.L2CAP_ParseFlowCtrlCredit
                0x00000000000088ca       0x2e G:\╄    单片机\WCH\CH573\Projects\CH571_BLE_Hygrothermograph\LIB\libCH57xBLE.a(l2cap.o)
                0x00000000000088ca                L2CAP_ParseFlowCtrlCredit
 .text.L2CAP_RegisterApp
                0x00000000000088f8       0x30 G:\╄    单片机\WCH\CH573\Projects\CH571_BLE_Hygrothermograph\LIB\libCH57xBLE.a(l2cap.o)
                0x00000000000088f8                L2CAP_RegisterApp
 .text.L2CAP_SetBufSize
                0x0000000000008928       0x1e G:\╄    单片机\WCH\CH573\Projects\CH571_BLE_Hygrothermograph\LIB\libCH57xBLE.a(l2cap.o)
                0x0000000000008928                L2CAP_SetBufSize
 .text.L2CAP_bm_alloc
                0x0000000000008946       0x2a G:\╄    单片机\WCH\CH573\Projects\CH571_BLE_Hygrothermograph\LIB\libCH57xBLE.a(l2cap.o)
                0x0000000000008946                L2CAP_bm_alloc
 .text.L2CAP_Init
                0x0000000000008970       0xee G:\╄    单片机\WCH\CH573\Projects\CH571_BLE_Hygrothermograph\LIB\libCH57xBLE.a(l2cap.o)
                0x0000000000008970                L2CAP_Init
 .text.L2CAP_ProcessEvent
                0x0000000000008a5e       0xc8 G:\╄    单片机\WCH\CH573\Projects\CH571_BLE_Hygrothermograph\LIB\libCH57xBLE.a(l2cap.o)
                0x0000000000008a5e                L2CAP_ProcessEvent
 .text.l2capParseCmdReject
                0x0000000000008b26       0x5e G:\╄    单片机\WCH\CH573\Projects\CH571_BLE_Hygrothermograph\LIB\libCH57xBLE.a(l2cap_input.o)
                0x0000000000008b26                l2capParseCmdReject
 .text.l2capParseDisconnectReq
                0x0000000000008b84       0x2e G:\╄    单片机\WCH\CH573\Projects\CH571_BLE_Hygrothermograph\LIB\libCH57xBLE.a(l2cap_input.o)
                0x0000000000008b84                l2capParseDisconnectReq
 .text.l2capParseDisconnectRsp
                0x0000000000008bb2       0x2e G:\╄    单片机\WCH\CH573\Projects\CH571_BLE_Hygrothermograph\LIB\libCH57xBLE.a(l2cap_input.o)
                0x0000000000008bb2                l2capParseDisconnectRsp
 .text.L2CAP_ParseParamUpdateReq
                0x0000000000008be0       0x4e G:\╄    单片机\WCH\CH573\Projects\CH571_BLE_Hygrothermograph\LIB\libCH57xBLE.a(l2cap_input.o)
                0x0000000000008be0                L2CAP_ParseParamUpdateReq
 .text.l2capParseParamUpdateRsp
                0x0000000000008c2e       0x1e G:\╄    单片机\WCH\CH573\Projects\CH571_BLE_Hygrothermograph\LIB\libCH57xBLE.a(l2cap_input.o)
                0x0000000000008c2e                l2capParseParamUpdateRsp
 .text.l2capProcessConnectReq
                0x0000000000008c4c       0xfc G:\╄    单片机\WCH\CH573\Projects\CH571_BLE_Hygrothermograph\LIB\libCH57xBLE.a(l2cap_input.o)
                0x0000000000008c4c                l2capProcessConnectReq
 .text.l2capParseConnectRsp
                0x0000000000008d48       0x5e G:\╄    单片机\WCH\CH573\Projects\CH571_BLE_Hygrothermograph\LIB\libCH57xBLE.a(l2cap_input.o)
                0x0000000000008d48                l2capParseConnectRsp
 .text.l2capParseSignalHdr
                0x0000000000008da6       0x22 G:\╄    单片机\WCH\CH573\Projects\CH571_BLE_Hygrothermograph\LIB\libCH57xBLE.a(l2cap_input.o)
                0x0000000000008da6                l2capParseSignalHdr
 .text.l2capParsePacket
                0x0000000000008dc8       0x8c G:\╄    单片机\WCH\CH573\Projects\CH571_BLE_Hygrothermograph\LIB\libCH57xBLE.a(l2cap_input.o)
                0x0000000000008dc8                l2capParsePacket
 .text.l2capProcessReq
                0x0000000000008e54      0x15a G:\╄    单片机\WCH\CH573\Projects\CH571_BLE_Hygrothermograph\LIB\libCH57xBLE.a(l2cap_input.o)
                0x0000000000008e54                l2capProcessReq
 .text.l2capProcessRsp
                0x0000000000008fae      0x150 G:\╄    单片机\WCH\CH573\Projects\CH571_BLE_Hygrothermograph\LIB\libCH57xBLE.a(l2cap_input.o)
                0x0000000000008fae                l2capProcessRsp
 .text.l2capProcessRxData
                0x00000000000090fe       0xf8 G:\╄    单片机\WCH\CH573\Projects\CH571_BLE_Hygrothermograph\LIB\libCH57xBLE.a(l2cap_input.o)
                0x00000000000090fe                l2capProcessRxData
 .text.l2capNotifyData
                0x00000000000091f6       0x5a G:\╄    单片机\WCH\CH573\Projects\CH571_BLE_Hygrothermograph\LIB\libCH57xBLE.a(l2cap_output.o)
                0x00000000000091f6                l2capNotifyData
 .text.l2capNotifySignal
                0x0000000000009250       0x76 G:\╄    单片机\WCH\CH573\Projects\CH571_BLE_Hygrothermograph\LIB\libCH57xBLE.a(l2cap_output.o)
                0x0000000000009250                l2capNotifySignal
 .text.l2capNotifyCreditEvt
                0x00000000000092c6       0x9c G:\╄    单片机\WCH\CH573\Projects\CH571_BLE_Hygrothermograph\LIB\libCH57xBLE.a(l2cap_output.o)
                0x00000000000092c6                l2capNotifyCreditEvt
 .text.l2capNotifyChannelEstEvt
                0x0000000000009362       0x58 G:\╄    单片机\WCH\CH573\Projects\CH571_BLE_Hygrothermograph\LIB\libCH57xBLE.a(l2cap_output.o)
                0x0000000000009362                l2capNotifyChannelEstEvt
 .text.l2capNotifyChannelTermEvt
                0x00000000000093ba       0x3e G:\╄    单片机\WCH\CH573\Projects\CH571_BLE_Hygrothermograph\LIB\libCH57xBLE.a(l2cap_output.o)
                0x00000000000093ba                l2capNotifyChannelTermEvt
 .text.l2capNotifyEvent
                0x00000000000093f8       0x66 G:\╄    单片机\WCH\CH573\Projects\CH571_BLE_Hygrothermograph\LIB\libCH57xBLE.a(l2cap_output.o)
                0x00000000000093f8                l2capNotifyEvent
 .text.l2capStoreFCPkt
                0x000000000000945e       0x32 G:\╄    单片机\WCH\CH573\Projects\CH571_BLE_Hygrothermograph\LIB\libCH57xBLE.a(l2cap_output.o)
                0x000000000000945e                l2capStoreFCPkt
 .text.l2capFreeTxSDU
                0x0000000000009490       0x9a G:\╄    单片机\WCH\CH573\Projects\CH571_BLE_Hygrothermograph\LIB\libCH57xBLE.a(l2cap_output.o)
                0x0000000000009490                l2capFreeTxSDU
 .text.l2capReassembleSegment
                0x000000000000952a      0x174 G:\╄    单片机\WCH\CH573\Projects\CH571_BLE_Hygrothermograph\LIB\libCH57xBLE.a(l2cap_output.o)
                0x000000000000952a                l2capReassembleSegment
 .text.l2capEncapSendData
                0x000000000000969e       0xec G:\╄    单片机\WCH\CH573\Projects\CH571_BLE_Hygrothermograph\LIB\libCH57xBLE.a(l2cap_output.o)
                0x000000000000969e                l2capEncapSendData
 .text.l2capSendFCPkt.part.3
                0x000000000000978a       0x70 G:\╄    单片机\WCH\CH573\Projects\CH571_BLE_Hygrothermograph\LIB\libCH57xBLE.a(l2cap_output.o)
 .text.l2capSendSegment
                0x00000000000097fa      0x108 G:\╄    单片机\WCH\CH573\Projects\CH571_BLE_Hygrothermograph\LIB\libCH57xBLE.a(l2cap_output.o)
                0x00000000000097fa                l2capSendSegment
 .text.l2capSendNextSegment
                0x0000000000009902       0xb4 G:\╄    单片机\WCH\CH573\Projects\CH571_BLE_Hygrothermograph\LIB\libCH57xBLE.a(l2cap_output.o)
                0x0000000000009902                l2capSendNextSegment
 .text.l2capSendPkt
                0x00000000000099b6       0x3a G:\╄    单片机\WCH\CH573\Projects\CH571_BLE_Hygrothermograph\LIB\libCH57xBLE.a(l2cap_output.o)
                0x00000000000099b6                l2capSendPkt
 .text.L2CAP_SendData
                0x00000000000099f0       0x82 G:\╄    单片机\WCH\CH573\Projects\CH571_BLE_Hygrothermograph\LIB\libCH57xBLE.a(l2cap_output.o)
                0x00000000000099f0                L2CAP_SendData
 .text.l2capSendCmd
                0x0000000000009a72       0x8a G:\╄    单片机\WCH\CH573\Projects\CH571_BLE_Hygrothermograph\LIB\libCH57xBLE.a(l2cap_output.o)
                0x0000000000009a72                l2capSendCmd
 .text.l2capSendReq
                0x0000000000009afc       0xae G:\╄    单片机\WCH\CH573\Projects\CH571_BLE_Hygrothermograph\LIB\libCH57xBLE.a(l2cap_output.o)
                0x0000000000009afc                l2capSendReq
 .text.l2capBuildDisconnectReq
                0x0000000000009baa       0x28 G:\╄    单片机\WCH\CH573\Projects\CH571_BLE_Hygrothermograph\LIB\libCH57xBLE.a(l2cap_sdu.o)
 .text.l2capBuildParamUpdateReq
                0x0000000000009bd2       0x4c G:\╄    单片机\WCH\CH573\Projects\CH571_BLE_Hygrothermograph\LIB\libCH57xBLE.a(l2cap_sdu.o)
 .text.l2capBuildParamUpdateRsp
                0x0000000000009c1e       0x16 G:\╄    单片机\WCH\CH573\Projects\CH571_BLE_Hygrothermograph\LIB\libCH57xBLE.a(l2cap_sdu.o)
 .text.l2capBuildConnectRsp
                0x0000000000009c34       0x5e G:\╄    单片机\WCH\CH573\Projects\CH571_BLE_Hygrothermograph\LIB\libCH57xBLE.a(l2cap_sdu.o)
 .text.l2capBuildCmdReject
                0x0000000000009c92       0x62 G:\╄    单片机\WCH\CH573\Projects\CH571_BLE_Hygrothermograph\LIB\libCH57xBLE.a(l2cap_sdu.o)
                0x0000000000009c92                l2capBuildCmdReject
 .text.l2capBuildDisconnectRsp
                0x0000000000009cf4       0x28 G:\╄    单片机\WCH\CH573\Projects\CH571_BLE_Hygrothermograph\LIB\libCH57xBLE.a(l2cap_sdu.o)
                0x0000000000009cf4                l2capBuildDisconnectRsp
 .text.l2capSendConnectRsp
                0x0000000000009d1c       0xa2 G:\╄    单片机\WCH\CH573\Projects\CH571_BLE_Hygrothermograph\LIB\libCH57xBLE.a(l2cap_sdu.o)
                0x0000000000009d1c                l2capSendConnectRsp
 .text.L2CAP_CmdReject
                0x0000000000009dbe       0x12 G:\╄    单片机\WCH\CH573\Projects\CH571_BLE_Hygrothermograph\LIB\libCH57xBLE.a(l2cap_sdu.o)
                0x0000000000009dbe                L2CAP_CmdReject
 .text.L2CAP_DisconnectReq
                0x0000000000009dd0       0x2a G:\╄    单片机\WCH\CH573\Projects\CH571_BLE_Hygrothermograph\LIB\libCH57xBLE.a(l2cap_sdu.o)
                0x0000000000009dd0                L2CAP_DisconnectReq
 .text.L2CAP_ConnParamUpdateReq
                0x0000000000009dfa       0x16 G:\╄    单片机\WCH\CH573\Projects\CH571_BLE_Hygrothermograph\LIB\libCH57xBLE.a(l2cap_sdu.o)
                0x0000000000009dfa                L2CAP_ConnParamUpdateReq
 .text.L2CAP_ConnParamUpdateRsp
                0x0000000000009e10       0x12 G:\╄    单片机\WCH\CH573\Projects\CH571_BLE_Hygrothermograph\LIB\libCH57xBLE.a(l2cap_sdu.o)
                0x0000000000009e10                L2CAP_ConnParamUpdateRsp
 .text.reportStatusChange
                0x0000000000009e22       0x3e G:\╄    单片机\WCH\CH573\Projects\CH571_BLE_Hygrothermograph\LIB\libCH57xBLE.a(linkdb.o)
 .text.linkDB_Init
                0x0000000000009e60       0x88 G:\╄    单片机\WCH\CH573\Projects\CH571_BLE_Hygrothermograph\LIB\libCH57xBLE.a(linkdb.o)
                0x0000000000009e60                linkDB_Init
 .text.linkDB_Find
                0x0000000000009ee8       0x2c G:\╄    单片机\WCH\CH573\Projects\CH571_BLE_Hygrothermograph\LIB\libCH57xBLE.a(linkdb.o)
                0x0000000000009ee8                linkDB_Find
 .text.linkDB_Authen
                0x0000000000009f14       0x5c G:\╄    单片机\WCH\CH573\Projects\CH571_BLE_Hygrothermograph\LIB\libCH57xBLE.a(linkdb.o)
                0x0000000000009f14                linkDB_Authen
 .text.linkDB_FindByAddr
                0x0000000000009f70       0x76 G:\╄    单片机\WCH\CH573\Projects\CH571_BLE_Hygrothermograph\LIB\libCH57xBLE.a(linkdb.o)
                0x0000000000009f70                linkDB_FindByAddr
 .text.linkDB_FindFirst
                0x0000000000009fe6       0x38 G:\╄    单片机\WCH\CH573\Projects\CH571_BLE_Hygrothermograph\LIB\libCH57xBLE.a(linkdb.o)
                0x0000000000009fe6                linkDB_FindFirst
 .text.linkDB_MTU
                0x000000000000a01e       0x18 G:\╄    单片机\WCH\CH573\Projects\CH571_BLE_Hygrothermograph\LIB\libCH57xBLE.a(linkdb.o)
                0x000000000000a01e                linkDB_MTU
 .text.linkDB_NumActive
                0x000000000000a036       0x2e G:\╄    单片机\WCH\CH573\Projects\CH571_BLE_Hygrothermograph\LIB\libCH57xBLE.a(linkdb.o)
                0x000000000000a036                linkDB_NumActive
 .text.linkDB_NumConns
                0x000000000000a064        0x6 G:\╄    单片机\WCH\CH573\Projects\CH571_BLE_Hygrothermograph\LIB\libCH57xBLE.a(linkdb.o)
                0x000000000000a064                linkDB_NumConns
 .text.linkDB_Register
                0x000000000000a06a       0x28 G:\╄    单片机\WCH\CH573\Projects\CH571_BLE_Hygrothermograph\LIB\libCH57xBLE.a(linkdb.o)
                0x000000000000a06a                linkDB_Register
 .text.linkDB_Remove
                0x000000000000a092       0x48 G:\╄    单片机\WCH\CH573\Projects\CH571_BLE_Hygrothermograph\LIB\libCH57xBLE.a(linkdb.o)
                0x000000000000a092                linkDB_Remove
 .text.linkDB_Role
                0x000000000000a0da       0x18 G:\╄    单片机\WCH\CH573\Projects\CH571_BLE_Hygrothermograph\LIB\libCH57xBLE.a(linkdb.o)
                0x000000000000a0da                linkDB_Role
 .text.linkDB_State
                0x000000000000a0f2       0x30 G:\╄    单片机\WCH\CH573\Projects\CH571_BLE_Hygrothermograph\LIB\libCH57xBLE.a(linkdb.o)
                0x000000000000a0f2                linkDB_State
 .text.linkDB_UpdateMTU
                0x000000000000a122       0x28 G:\╄    单片机\WCH\CH573\Projects\CH571_BLE_Hygrothermograph\LIB\libCH57xBLE.a(linkdb.o)
                0x000000000000a122                linkDB_UpdateMTU
 .text.linkDB_PerformFunc
                0x000000000000a14a       0x52 G:\╄    单片机\WCH\CH573\Projects\CH571_BLE_Hygrothermograph\LIB\libCH57xBLE.a(linkdb.o)
                0x000000000000a14a                linkDB_PerformFunc
 .text.linkDB_GetSMEvtID
                0x000000000000a19c       0x58 G:\╄    单片机\WCH\CH573\Projects\CH571_BLE_Hygrothermograph\LIB\libCH57xBLE.a(linkdb.o)
                0x000000000000a19c                linkDB_GetSMEvtID
 .text.linkDB_Add
                0x000000000000a1f4       0xb2 G:\╄    单片机\WCH\CH573\Projects\CH571_BLE_Hygrothermograph\LIB\libCH57xBLE.a(linkdb.o)
                0x000000000000a1f4                linkDB_Add
 .text.linkDB_GetHandleFromSMEvtID
                0x000000000000a2a6       0x32 G:\╄    单片机\WCH\CH573\Projects\CH571_BLE_Hygrothermograph\LIB\libCH57xBLE.a(linkdb.o)
                0x000000000000a2a6                linkDB_GetHandleFromSMEvtID
 .text.linkDB_GetPairingParam
                0x000000000000a2d8       0x54 G:\╄    单片机\WCH\CH573\Projects\CH571_BLE_Hygrothermograph\LIB\libCH57xBLE.a(linkdb.o)
                0x000000000000a2d8                linkDB_GetPairingParam
 .text.linkDB_NeedSendKey
                0x000000000000a32c       0x42 G:\╄    单片机\WCH\CH573\Projects\CH571_BLE_Hygrothermograph\LIB\libCH57xBLE.a(linkdb.o)
                0x000000000000a32c                linkDB_NeedSendKey
 .text.smpBuildPairingFailed
                0x000000000000a36e       0x1a G:\╄    单片机\WCH\CH573\Projects\CH571_BLE_Hygrothermograph\LIB\libCH57xBLE.a(sm.o)
                0x000000000000a36e                smpBuildPairingFailed
 .text.SM_StartEncryption
                0x000000000000a388       0x98 G:\╄    单片机\WCH\CH573\Projects\CH571_BLE_Hygrothermograph\LIB\libCH57xBLE.a(sm.o)
                0x000000000000a388                SM_StartEncryption
 .text.smpBuildEncInfo
                0x000000000000a420       0x30 G:\╄    单片机\WCH\CH573\Projects\CH571_BLE_Hygrothermograph\LIB\libCH57xBLE.a(sm.o)
                0x000000000000a420                smpBuildEncInfo
 .text.smpBuildIdentityAddrInfo
                0x000000000000a450       0x3a G:\╄    单片机\WCH\CH573\Projects\CH571_BLE_Hygrothermograph\LIB\libCH57xBLE.a(sm.o)
                0x000000000000a450                smpBuildIdentityAddrInfo
 .text.smpBuildIdentityInfo
                0x000000000000a48a       0x30 G:\╄    单片机\WCH\CH573\Projects\CH571_BLE_Hygrothermograph\LIB\libCH57xBLE.a(sm.o)
                0x000000000000a48a                smpBuildIdentityInfo
 .text.smpBuildMasterID
                0x000000000000a4ba       0x44 G:\╄    单片机\WCH\CH573\Projects\CH571_BLE_Hygrothermograph\LIB\libCH57xBLE.a(sm.o)
                0x000000000000a4ba                smpBuildMasterID
 .text.smpBuildPairingConfirm
                0x000000000000a4fe       0x30 G:\╄    单片机\WCH\CH573\Projects\CH571_BLE_Hygrothermograph\LIB\libCH57xBLE.a(sm.o)
                0x000000000000a4fe                smpBuildPairingConfirm
 .text.smpBuildPairingRandom
                0x000000000000a52e       0x30 G:\╄    单片机\WCH\CH573\Projects\CH571_BLE_Hygrothermograph\LIB\libCH57xBLE.a(sm.o)
                0x000000000000a52e                smpBuildPairingRandom
 .text.smpBuildSigningInfo
                0x000000000000a55e       0x30 G:\╄    单片机\WCH\CH573\Projects\CH571_BLE_Hygrothermograph\LIB\libCH57xBLE.a(sm.o)
                0x000000000000a55e                smpBuildSigningInfo
 .text.SM_ParamInit
                0x000000000000a58e       0x5a G:\╄    单片机\WCH\CH573\Projects\CH571_BLE_Hygrothermograph\LIB\libCH57xBLE.a(sm.o)
                0x000000000000a58e                SM_ParamInit
 .text.smDetermineKeySize
                0x000000000000a5e8       0x20 G:\╄    单片机\WCH\CH573\Projects\CH571_BLE_Hygrothermograph\LIB\libCH57xBLE.a(sm.o)
                0x000000000000a5e8                smDetermineKeySize
 .text.smProcessRandComplete
                0x000000000000a608       0x9e G:\╄    单片机\WCH\CH573\Projects\CH571_BLE_Hygrothermograph\LIB\libCH57xBLE.a(sm.o)
                0x000000000000a608                smProcessRandComplete
 .text.smSavePairInfo
                0x000000000000a6a6      0x186 G:\╄    单片机\WCH\CH573\Projects\CH571_BLE_Hygrothermograph\LIB\libCH57xBLE.a(sm.o)
                0x000000000000a6a6                smSavePairInfo
 .text.smSetPairingReqRsp
                0x000000000000a82c       0x38 G:\╄    单片机\WCH\CH573\Projects\CH571_BLE_Hygrothermograph\LIB\libCH57xBLE.a(sm.o)
                0x000000000000a82c                smSetPairingReqRsp
 .text.smStartEncryption
                0x000000000000a864       0x16 G:\╄    单片机\WCH\CH573\Projects\CH571_BLE_Hygrothermograph\LIB\libCH57xBLE.a(sm.o)
                0x000000000000a864                smStartEncryption
 .text.smStartRspTimer
                0x000000000000a87a       0x36 G:\╄    单片机\WCH\CH573\Projects\CH571_BLE_Hygrothermograph\LIB\libCH57xBLE.a(sm.o)
                0x000000000000a87a                smStartRspTimer
 .text.smSendSMMsg
                0x000000000000a8b0       0x5c G:\╄    单片机\WCH\CH573\Projects\CH571_BLE_Hygrothermograph\LIB\libCH57xBLE.a(sm.o)
                0x000000000000a8b0                smSendSMMsg
 .text.smGenerateConfirm
                0x000000000000a90c       0x34 G:\╄    单片机\WCH\CH573\Projects\CH571_BLE_Hygrothermograph\LIB\libCH57xBLE.a(sm.o)
                0x000000000000a90c                smGenerateConfirm
 .text.smGenerateRandMsg
                0x000000000000a940       0x34 G:\╄    单片机\WCH\CH573\Projects\CH571_BLE_Hygrothermograph\LIB\libCH57xBLE.a(sm.o)
                0x000000000000a940                smGenerateRandMsg
 .text.smPairingSendEncInfo
                0x000000000000a974       0x10 G:\╄    单片机\WCH\CH573\Projects\CH571_BLE_Hygrothermograph\LIB\libCH57xBLE.a(sm.o)
                0x000000000000a974                smPairingSendEncInfo
 .text.smPairingSendIdentityAddrInfo
                0x000000000000a984       0x38 G:\╄    单片机\WCH\CH573\Projects\CH571_BLE_Hygrothermograph\LIB\libCH57xBLE.a(sm.o)
                0x000000000000a984                smPairingSendIdentityAddrInfo
 .text.smPairingSendIdentityInfo
                0x000000000000a9bc       0x10 G:\╄    单片机\WCH\CH573\Projects\CH571_BLE_Hygrothermograph\LIB\libCH57xBLE.a(sm.o)
                0x000000000000a9bc                smPairingSendIdentityInfo
 .text.smPairingSendMasterID
                0x000000000000a9cc       0x38 G:\╄    单片机\WCH\CH573\Projects\CH571_BLE_Hygrothermograph\LIB\libCH57xBLE.a(sm.o)
                0x000000000000a9cc                smPairingSendMasterID
 .text.smPairingSendSingingInfo
                0x000000000000aa04       0x10 G:\╄    单片机\WCH\CH573\Projects\CH571_BLE_Hygrothermograph\LIB\libCH57xBLE.a(sm.o)
                0x000000000000aa04                smPairingSendSingingInfo
 .text.smInitiatorSendNextKeyInfo
                0x000000000000aa14      0x1c2 G:\╄    单片机\WCH\CH573\Projects\CH571_BLE_Hygrothermograph\LIB\libCH57xBLE.a(sm.o)
                0x000000000000aa14                smInitiatorSendNextKeyInfo
 .text.smResponderSendNextKeyInfo
                0x000000000000abd6      0x216 G:\╄    单片机\WCH\CH573\Projects\CH571_BLE_Hygrothermograph\LIB\libCH57xBLE.a(sm.o)
                0x000000000000abd6                smResponderSendNextKeyInfo
 .text.smGeneratePairingReqRsp
                0x000000000000adec       0x3e G:\╄    单片机\WCH\CH573\Projects\CH571_BLE_Hygrothermograph\LIB\libCH57xBLE.a(sm.o)
                0x000000000000adec                smGeneratePairingReqRsp
 .text.smStopRspTimer
                0x000000000000ae2a        0xa G:\╄    单片机\WCH\CH573\Projects\CH571_BLE_Hygrothermograph\LIB\libCH57xBLE.a(sm.o)
                0x000000000000ae2a                smStopRspTimer
 .text.smFreePairingParams
                0x000000000000ae34       0x68 G:\╄    单片机\WCH\CH573\Projects\CH571_BLE_Hygrothermograph\LIB\libCH57xBLE.a(sm.o)
                0x000000000000ae34                smFreePairingParams
 .text.smEndPairing
                0x000000000000ae9c       0x5c G:\╄    单片机\WCH\CH573\Projects\CH571_BLE_Hygrothermograph\LIB\libCH57xBLE.a(sm.o)
                0x000000000000ae9c                smEndPairing
 .text.setupInitiatorKeys
                0x000000000000aef8       0x82 G:\╄    单片机\WCH\CH573\Projects\CH571_BLE_Hygrothermograph\LIB\libCH57xBLE.a(sm.o)
                0x000000000000aef8                setupInitiatorKeys
 .text.smNextPairingState
                0x000000000000af7a       0x56 G:\╄    单片机\WCH\CH573\Projects\CH571_BLE_Hygrothermograph\LIB\libCH57xBLE.a(sm.o)
                0x000000000000af7a                smNextPairingState
 .text.smProcessEncryptChange
                0x000000000000afd0       0xde G:\╄    单片机\WCH\CH573\Projects\CH571_BLE_Hygrothermograph\LIB\libCH57xBLE.a(sm.o)
                0x000000000000afd0                smProcessEncryptChange
 .text.smSendFailAndEnd
                0x000000000000b0ae       0x38 G:\╄    单片机\WCH\CH573\Projects\CH571_BLE_Hygrothermograph\LIB\libCH57xBLE.a(sm.o)
                0x000000000000b0ae                smSendFailAndEnd
 .text.smProcessPairingReq
                0x000000000000b0e6       0x3c G:\╄    单片机\WCH\CH573\Projects\CH571_BLE_Hygrothermograph\LIB\libCH57xBLE.a(sm.o)
                0x000000000000b0e6                smProcessPairingReq
 .text.smLinkCheck
                0x000000000000b122       0x34 G:\╄    单片机\WCH\CH573\Projects\CH571_BLE_Hygrothermograph\LIB\libCH57xBLE.a(sm.o)
                0x000000000000b122                smLinkCheck
 .text.smTimedOut
                0x000000000000b156       0x20 G:\╄    单片机\WCH\CH573\Projects\CH571_BLE_Hygrothermograph\LIB\libCH57xBLE.a(sm.o)
                0x000000000000b156                smTimedOut
 .text.sm_ah    0x000000000000b176       0x80 G:\╄    单片机\WCH\CH573\Projects\CH571_BLE_Hygrothermograph\LIB\libCH57xBLE.a(sm.o)
                0x000000000000b176                sm_ah
 .text.sm_xor   0x000000000000b1f6       0x24 G:\╄    单片机\WCH\CH573\Projects\CH571_BLE_Hygrothermograph\LIB\libCH57xBLE.a(sm.o)
                0x000000000000b1f6                sm_xor
 .text.sm_c1new
                0x000000000000b21a      0x11c G:\╄    单片机\WCH\CH573\Projects\CH571_BLE_Hygrothermograph\LIB\libCH57xBLE.a(sm.o)
                0x000000000000b21a                sm_c1new
 .text.sm_s1    0x000000000000b336       0x86 G:\╄    单片机\WCH\CH573\Projects\CH571_BLE_Hygrothermograph\LIB\libCH57xBLE.a(sm.o)
                0x000000000000b336                sm_s1
 .text.smResponderProcessLTKReq
                0x000000000000b3bc      0x1e6 G:\╄    单片机\WCH\CH573\Projects\CH571_BLE_Hygrothermograph\LIB\libCH57xBLE.a(sm.o)
                0x000000000000b3bc                smResponderProcessLTKReq
 .text.xor_128  0x000000000000b5a2       0x28 G:\╄    单片机\WCH\CH573\Projects\CH571_BLE_Hygrothermograph\LIB\libCH57xBLE.a(sm.o)
                0x000000000000b5a2                xor_128
 .text.leftshift_onebit
                0x000000000000b5ca       0x2e G:\╄    单片机\WCH\CH573\Projects\CH571_BLE_Hygrothermograph\LIB\libCH57xBLE.a(sm.o)
                0x000000000000b5ca                leftshift_onebit
 .text.padding  0x000000000000b5f8       0x38 G:\╄    单片机\WCH\CH573\Projects\CH571_BLE_Hygrothermograph\LIB\libCH57xBLE.a(sm.o)
                0x000000000000b5f8                padding
 .text.generate_subkey
                0x000000000000b630       0xd0 G:\╄    单片机\WCH\CH573\Projects\CH571_BLE_Hygrothermograph\LIB\libCH57xBLE.a(sm.o)
                0x000000000000b630                generate_subkey
 .text.sm_CMAC  0x000000000000b700      0x16e G:\╄    单片机\WCH\CH573\Projects\CH571_BLE_Hygrothermograph\LIB\libCH57xBLE.a(sm.o)
                0x000000000000b700                sm_CMAC
 .text.smpBuildPairingReqRsp
                0x000000000000b86e       0xc6 G:\╄    单片机\WCH\CH573\Projects\CH571_BLE_Hygrothermograph\LIB\libCH57xBLE.a(sm.o)
                0x000000000000b86e                smpBuildPairingReqRsp
 .text.smpBuildPairingReq
                0x000000000000b934        0xa G:\╄    单片机\WCH\CH573\Projects\CH571_BLE_Hygrothermograph\LIB\libCH57xBLE.a(sm.o)
                0x000000000000b934                smpBuildPairingReq
 .text.smpBuildPairingRsp
                0x000000000000b93e        0xa G:\╄    单片机\WCH\CH573\Projects\CH571_BLE_Hygrothermograph\LIB\libCH57xBLE.a(sm.o)
                0x000000000000b93e                smpBuildPairingRsp
 .text.sm_c1    0x000000000000b948       0xb4 G:\╄    单片机\WCH\CH573\Projects\CH571_BLE_Hygrothermograph\LIB\libCH57xBLE.a(sm.o)
                0x000000000000b948                sm_c1
 .text.smpInitiatorProcessPairingRsp
                0x000000000000b9fc      0x116 G:\╄    单片机\WCH\CH573\Projects\CH571_BLE_Hygrothermograph\LIB\libCH57xBLE.a(sm.o)
                0x000000000000b9fc                smpInitiatorProcessPairingRsp
 .text.smpInitiatorProcessIncoming
                0x000000000000bb12      0x23e G:\╄    单片机\WCH\CH573\Projects\CH571_BLE_Hygrothermograph\LIB\libCH57xBLE.a(sm.o)
                0x000000000000bb12                smpInitiatorProcessIncoming
 .text.smpParseEncInfo
                0x000000000000bd50       0x2a G:\╄    单片机\WCH\CH573\Projects\CH571_BLE_Hygrothermograph\LIB\libCH57xBLE.a(sm.o)
                0x000000000000bd50                smpParseEncInfo
 .text.smpParseIdentityAddrInfo
                0x000000000000bd7a       0x34 G:\╄    单片机\WCH\CH573\Projects\CH571_BLE_Hygrothermograph\LIB\libCH57xBLE.a(sm.o)
                0x000000000000bd7a                smpParseIdentityAddrInfo
 .text.smpParseIdentityInfo
                0x000000000000bdae       0x2a G:\╄    单片机\WCH\CH573\Projects\CH571_BLE_Hygrothermograph\LIB\libCH57xBLE.a(sm.o)
                0x000000000000bdae                smpParseIdentityInfo
 .text.smpParseMasterID
                0x000000000000bdd8       0x3c G:\╄    单片机\WCH\CH573\Projects\CH571_BLE_Hygrothermograph\LIB\libCH57xBLE.a(sm.o)
                0x000000000000bdd8                smpParseMasterID
 .text.smpParsePairingConfirm
                0x000000000000be14       0x2a G:\╄    单片机\WCH\CH573\Projects\CH571_BLE_Hygrothermograph\LIB\libCH57xBLE.a(sm.o)
                0x000000000000be14                smpParsePairingConfirm
 .text.smpParsePairingFailed
                0x000000000000be3e       0x22 G:\╄    单片机\WCH\CH573\Projects\CH571_BLE_Hygrothermograph\LIB\libCH57xBLE.a(sm.o)
                0x000000000000be3e                smpParsePairingFailed
 .text.smpParsePairingRandom
                0x000000000000be60       0x2a G:\╄    单片机\WCH\CH573\Projects\CH571_BLE_Hygrothermograph\LIB\libCH57xBLE.a(sm.o)
                0x000000000000be60                smpParsePairingRandom
 .text.smpParsePairingReq
                0x000000000000be8a      0x118 G:\╄    单片机\WCH\CH573\Projects\CH571_BLE_Hygrothermograph\LIB\libCH57xBLE.a(sm.o)
                0x000000000000be8a                smpParsePairingReq
 .text.smpParseSigningInfo
                0x000000000000bfa2       0x2a G:\╄    单片机\WCH\CH573\Projects\CH571_BLE_Hygrothermograph\LIB\libCH57xBLE.a(sm.o)
                0x000000000000bfa2                smpParseSigningInfo
 .text.smProcessDataMsg
                0x000000000000bfcc       0xec G:\╄    单片机\WCH\CH573\Projects\CH571_BLE_Hygrothermograph\LIB\libCH57xBLE.a(sm.o)
                0x000000000000bfcc                smProcessDataMsg
 .text.smProcessTMOSMsg
                0x000000000000c0b8       0xd4 G:\╄    单片机\WCH\CH573\Projects\CH571_BLE_Hygrothermograph\LIB\libCH57xBLE.a(sm.o)
                0x000000000000c0b8                smProcessTMOSMsg
 .text.smpResponderProcessPairingReq
                0x000000000000c18c       0xd6 G:\╄    单片机\WCH\CH573\Projects\CH571_BLE_Hygrothermograph\LIB\libCH57xBLE.a(sm.o)
                0x000000000000c18c                smpResponderProcessPairingReq
 .text.smpResponderProcessIncoming
                0x000000000000c262      0x24c G:\╄    单片机\WCH\CH573\Projects\CH571_BLE_Hygrothermograph\LIB\libCH57xBLE.a(sm.o)
                0x000000000000c262                smpResponderProcessIncoming
 .text.SM_CalcRandomAddr
                0x000000000000c4ae       0x54 G:\╄    单片机\WCH\CH573\Projects\CH571_BLE_Hygrothermograph\LIB\libCH57xBLE.a(sm.o)
                0x000000000000c4ae                SM_CalcRandomAddr
 .text.SM_GenerateAuthenSig
                0x000000000000c502       0xda G:\╄    单片机\WCH\CH573\Projects\CH571_BLE_Hygrothermograph\LIB\libCH57xBLE.a(sm.o)
                0x000000000000c502                SM_GenerateAuthenSig
 .text.SM_Init  0x000000000000c5dc       0x26 G:\╄    单片机\WCH\CH573\Projects\CH571_BLE_Hygrothermograph\LIB\libCH57xBLE.a(sm.o)
                0x000000000000c5dc                SM_Init
 .text.SM_InitiatorInit
                0x000000000000c602       0x1a G:\╄    单片机\WCH\CH573\Projects\CH571_BLE_Hygrothermograph\LIB\libCH57xBLE.a(sm.o)
                0x000000000000c602                SM_InitiatorInit
 .text.SM_PasskeyUpdate
                0x000000000000c61c       0xc8 G:\╄    单片机\WCH\CH573\Projects\CH571_BLE_Hygrothermograph\LIB\libCH57xBLE.a(sm.o)
                0x000000000000c61c                SM_PasskeyUpdate
 .text.SM_ProcessEvent
                0x000000000000c6e4       0x9e G:\╄    单片机\WCH\CH573\Projects\CH571_BLE_Hygrothermograph\LIB\libCH57xBLE.a(sm.o)
                0x000000000000c6e4                SM_ProcessEvent
 .text.SM_ResolveRandomAddrs
                0x000000000000c782       0x5a G:\╄    单片机\WCH\CH573\Projects\CH571_BLE_Hygrothermograph\LIB\libCH57xBLE.a(sm.o)
                0x000000000000c782                SM_ResolveRandomAddrs
 .text.SM_ResponderInit
                0x000000000000c7dc       0x1a G:\╄    单片机\WCH\CH573\Projects\CH571_BLE_Hygrothermograph\LIB\libCH57xBLE.a(sm.o)
                0x000000000000c7dc                SM_ResponderInit
 .text.SM_StartPairing
                0x000000000000c7f6       0xcc G:\╄    单片机\WCH\CH573\Projects\CH571_BLE_Hygrothermograph\LIB\libCH57xBLE.a(sm.o)
                0x000000000000c7f6                SM_StartPairing
 .text.SM_VerifyAuthenSig
                0x000000000000c8c2      0x138 G:\╄    单片机\WCH\CH573\Projects\CH571_BLE_Hygrothermograph\LIB\libCH57xBLE.a(sm.o)
                0x000000000000c8c2                SM_VerifyAuthenSig
 .text.HOST_LE_ConnectionCompleteEvent
                0x000000000000c9fa       0xc2 G:\╄    单片机\WCH\CH573\Projects\CH571_BLE_Hygrothermograph\LIB\libCH57xBLE.a(host_input.o)
                0x000000000000c9fa                HOST_LE_ConnectionCompleteEvent
 .text.HOST_LE_ConnectionUpdateCompleteEvent
                0x000000000000cabc       0x5c G:\╄    单片机\WCH\CH573\Projects\CH571_BLE_Hygrothermograph\LIB\libCH57xBLE.a(host_input.o)
                0x000000000000cabc                HOST_LE_ConnectionUpdateCompleteEvent
 .text.HOST_LE_ReadRemoteUsedFeaturesCompleteEvent
                0x000000000000cb18       0x62 G:\╄    单片机\WCH\CH573\Projects\CH571_BLE_Hygrothermograph\LIB\libCH57xBLE.a(host_input.o)
                0x000000000000cb18                HOST_LE_ReadRemoteUsedFeaturesCompleteEvent
 .text.HOST_LE_LongTermKeyRequestEvent
                0x000000000000cb7a       0x60 G:\╄    单片机\WCH\CH573\Projects\CH571_BLE_Hygrothermograph\LIB\libCH57xBLE.a(host_input.o)
                0x000000000000cb7a                HOST_LE_LongTermKeyRequestEvent
 .text.HOST_LE_RemoteConnectionParameterRequestEvent
                0x000000000000cbda       0x5c G:\╄    单片机\WCH\CH573\Projects\CH571_BLE_Hygrothermograph\LIB\libCH57xBLE.a(host_input.o)
                0x000000000000cbda                HOST_LE_RemoteConnectionParameterRequestEvent
 .text.HOST_RemoteConnectionParameterRequestEvent
                0x000000000000cc36       0x42 G:\╄    单片机\WCH\CH573\Projects\CH571_BLE_Hygrothermograph\LIB\libCH57xBLE.a(host_input.o)
                0x000000000000cc36                HOST_RemoteConnectionParameterRequestEvent
 .text.HOST_LE_DataLengthChangeEvent
                0x000000000000cc78       0x5c G:\╄    单片机\WCH\CH573\Projects\CH571_BLE_Hygrothermograph\LIB\libCH57xBLE.a(host_input.o)
                0x000000000000cc78                HOST_LE_DataLengthChangeEvent
 .text.HOST_LE_EnhancedConnectionCompleteEvent
                0x000000000000ccd4      0x118 G:\╄    单片机\WCH\CH573\Projects\CH571_BLE_Hygrothermograph\LIB\libCH57xBLE.a(host_input.o)
                0x000000000000ccd4                HOST_LE_EnhancedConnectionCompleteEvent
 .text.HOST_DisconnectionCompleteEvent
                0x000000000000cdec       0x44 G:\╄    单片机\WCH\CH573\Projects\CH571_BLE_Hygrothermograph\LIB\libCH57xBLE.a(host_input.o)
                0x000000000000cdec                HOST_DisconnectionCompleteEvent
 .text.HOST_EncryptionChangeEvent
                0x000000000000ce30       0x4c G:\╄    单片机\WCH\CH573\Projects\CH571_BLE_Hygrothermograph\LIB\libCH57xBLE.a(host_input.o)
                0x000000000000ce30                HOST_EncryptionChangeEvent
 .text.HOST_ReadRemoteVersionInfoEvent
                0x000000000000ce7c       0x56 G:\╄    单片机\WCH\CH573\Projects\CH571_BLE_Hygrothermograph\LIB\libCH57xBLE.a(host_input.o)
                0x000000000000ce7c                HOST_ReadRemoteVersionInfoEvent
 .text.HOST_CommandCompleteEvent
                0x000000000000ced2       0x5e G:\╄    单片机\WCH\CH573\Projects\CH571_BLE_Hygrothermograph\LIB\libCH57xBLE.a(host_input.o)
                0x000000000000ced2                HOST_CommandCompleteEvent
 .text.HOST_CommandStatusEvent
                0x000000000000cf30       0x44 G:\╄    单片机\WCH\CH573\Projects\CH571_BLE_Hygrothermograph\LIB\libCH57xBLE.a(host_input.o)
                0x000000000000cf30                HOST_CommandStatusEvent
 .text.HOST_DataBufferOverflowEvent
                0x000000000000cf74       0x3a G:\╄    单片机\WCH\CH573\Projects\CH571_BLE_Hygrothermograph\LIB\libCH57xBLE.a(host_input.o)
                0x000000000000cf74                HOST_DataBufferOverflowEvent
 .text.HOST_EncryptionKeyRefreshCompleteEvent
                0x000000000000cfae       0x46 G:\╄    单片机\WCH\CH573\Projects\CH571_BLE_Hygrothermograph\LIB\libCH57xBLE.a(host_input.o)
                0x000000000000cfae                HOST_EncryptionKeyRefreshCompleteEvent
 .text.HOST_NumberOfCompletedPacketsEvent
                0x000000000000cff4       0x40 G:\╄    单片机\WCH\CH573\Projects\CH571_BLE_Hygrothermograph\LIB\libCH57xBLE.a(host_input.o)
                0x000000000000cff4                HOST_NumberOfCompletedPacketsEvent
 .text.HOST_RecvDataPackets
                0x000000000000d034      0x1c6 G:\╄    单片机\WCH\CH573\Projects\CH571_BLE_Hygrothermograph\LIB\libCH57xBLE.a(host_input.o)
                0x000000000000d034                HOST_RecvDataPackets
 .text.HCI_DisconnectCmd
                0x000000000000d1fa        0x4 G:\╄    单片机\WCH\CH573\Projects\CH571_BLE_Hygrothermograph\LIB\libCH57xBLE.a(host_output.o)
                0x000000000000d1fa                HCI_DisconnectCmd
 .text.HCI_MB_DisconnectCmd
                0x000000000000d1fe        0x4 G:\╄    单片机\WCH\CH573\Projects\CH571_BLE_Hygrothermograph\LIB\libCH57xBLE.a(host_output.o)
                0x000000000000d1fe                HCI_MB_DisconnectCmd
 .text.HCI_HostNumCompletedPktCmd
                0x000000000000d202       0x10 G:\╄    单片机\WCH\CH573\Projects\CH571_BLE_Hygrothermograph\LIB\libCH57xBLE.a(host_output.o)
                0x000000000000d202                HCI_HostNumCompletedPktCmd
 .text.HCI_ReadBDADDRCmd
                0x000000000000d212        0x4 G:\╄    单片机\WCH\CH573\Projects\CH571_BLE_Hygrothermograph\LIB\libCH57xBLE.a(host_output.o)
                0x000000000000d212                HCI_ReadBDADDRCmd
 .text.HCI_LE_ReadBufSizeCmd
                0x000000000000d216        0x4 G:\╄    单片机\WCH\CH573\Projects\CH571_BLE_Hygrothermograph\LIB\libCH57xBLE.a(host_output.o)
                0x000000000000d216                HCI_LE_ReadBufSizeCmd
 .text.HCI_LE_SetRandomAddressCmd
                0x000000000000d21a        0x4 G:\╄    单片机\WCH\CH573\Projects\CH571_BLE_Hygrothermograph\LIB\libCH57xBLE.a(host_output.o)
                0x000000000000d21a                HCI_LE_SetRandomAddressCmd
 .text.HCI_LE_SetAdvParamCmd
                0x000000000000d21e        0x4 G:\╄    单片机\WCH\CH573\Projects\CH571_BLE_Hygrothermograph\LIB\libCH57xBLE.a(host_output.o)
                0x000000000000d21e                HCI_LE_SetAdvParamCmd
 .text.HCI_LE_SetAdvDataCmd
                0x000000000000d222        0x4 G:\╄    单片机\WCH\CH573\Projects\CH571_BLE_Hygrothermograph\LIB\libCH57xBLE.a(host_output.o)
                0x000000000000d222                HCI_LE_SetAdvDataCmd
 .text.HCI_LE_SetScanRspDataCmd
                0x000000000000d226        0x4 G:\╄    单片机\WCH\CH573\Projects\CH571_BLE_Hygrothermograph\LIB\libCH57xBLE.a(host_output.o)
                0x000000000000d226                HCI_LE_SetScanRspDataCmd
 .text.HCI_LE_SetAdvEnableCmd
                0x000000000000d22a        0x4 G:\╄    单片机\WCH\CH573\Projects\CH571_BLE_Hygrothermograph\LIB\libCH57xBLE.a(host_output.o)
                0x000000000000d22a                HCI_LE_SetAdvEnableCmd
 .text.HCI_LE_SetScanEnableCmd
                0x000000000000d22e        0x4 G:\╄    单片机\WCH\CH573\Projects\CH571_BLE_Hygrothermograph\LIB\libCH57xBLE.a(host_output.o)
                0x000000000000d22e                HCI_LE_SetScanEnableCmd
 .text.HCI_LE_CreateConnCancelCmd
                0x000000000000d232        0x4 G:\╄    单片机\WCH\CH573\Projects\CH571_BLE_Hygrothermograph\LIB\libCH57xBLE.a(host_output.o)
                0x000000000000d232                HCI_LE_CreateConnCancelCmd
 .text.HCI_LE_ClearWhiteListCmd
                0x000000000000d236        0x4 G:\╄    单片机\WCH\CH573\Projects\CH571_BLE_Hygrothermograph\LIB\libCH57xBLE.a(host_output.o)
                0x000000000000d236                HCI_LE_ClearWhiteListCmd
 .text.HCI_LE_AddWhiteListCmd
                0x000000000000d23a        0x4 G:\╄    单片机\WCH\CH573\Projects\CH571_BLE_Hygrothermograph\LIB\libCH57xBLE.a(host_output.o)
                0x000000000000d23a                HCI_LE_AddWhiteListCmd
 .text.HCI_LE_ConnUpdateCmd
                0x000000000000d23e        0x4 G:\╄    单片机\WCH\CH573\Projects\CH571_BLE_Hygrothermograph\LIB\libCH57xBLE.a(host_output.o)
                0x000000000000d23e                HCI_LE_ConnUpdateCmd
 .text.HCI_LE_RandCmd
                0x000000000000d242        0x4 G:\╄    单片机\WCH\CH573\Projects\CH571_BLE_Hygrothermograph\LIB\libCH57xBLE.a(host_output.o)
                0x000000000000d242                HCI_LE_RandCmd
 .text.HCI_LE_StartEncyptCmd
                0x000000000000d246       0x10 G:\╄    单片机\WCH\CH573\Projects\CH571_BLE_Hygrothermograph\LIB\libCH57xBLE.a(host_output.o)
                0x000000000000d246                HCI_LE_StartEncyptCmd
 .text.HCI_LE_LtkReqReplyCmd
                0x000000000000d256        0x4 G:\╄    单片机\WCH\CH573\Projects\CH571_BLE_Hygrothermograph\LIB\libCH57xBLE.a(host_output.o)
                0x000000000000d256                HCI_LE_LtkReqReplyCmd
 .text.HCI_LE_LtkReqNegReplyCmd
                0x000000000000d25a        0x4 G:\╄    单片机\WCH\CH573\Projects\CH571_BLE_Hygrothermograph\LIB\libCH57xBLE.a(host_output.o)
                0x000000000000d25a                HCI_LE_LtkReqNegReplyCmd
 .text.HCI_LE_RemoteConnParamReqReplyCmd
                0x000000000000d25e        0x4 G:\╄    单片机\WCH\CH573\Projects\CH571_BLE_Hygrothermograph\LIB\libCH57xBLE.a(host_output.o)
                0x000000000000d25e                HCI_LE_RemoteConnParamReqReplyCmd
 .text.HCI_LE_RemoteConnParamReqNegReplyCmd
                0x000000000000d262        0x4 G:\╄    单片机\WCH\CH573\Projects\CH571_BLE_Hygrothermograph\LIB\libCH57xBLE.a(host_output.o)
                0x000000000000d262                HCI_LE_RemoteConnParamReqNegReplyCmd
 .text.HCI_LE_AddDeviceToResolvingList
                0x000000000000d266        0x4 G:\╄    单片机\WCH\CH573\Projects\CH571_BLE_Hygrothermograph\LIB\libCH57xBLE.a(host_output.o)
                0x000000000000d266                HCI_LE_AddDeviceToResolvingList
 .text.HCI_LE_ClearResolvingList
                0x000000000000d26a        0x4 G:\╄    单片机\WCH\CH573\Projects\CH571_BLE_Hygrothermograph\LIB\libCH57xBLE.a(host_output.o)
                0x000000000000d26a                HCI_LE_ClearResolvingList
 .text.HCI_LE_SetAddressResolvableEnableCmd
                0x000000000000d26e        0x4 G:\╄    单片机\WCH\CH573\Projects\CH571_BLE_Hygrothermograph\LIB\libCH57xBLE.a(host_output.o)
                0x000000000000d26e                HCI_LE_SetAddressResolvableEnableCmd
 .text.HCI_LE_SetResolvableAddressTimeoutCmd
                0x000000000000d272        0x4 G:\╄    单片机\WCH\CH573\Projects\CH571_BLE_Hygrothermograph\LIB\libCH57xBLE.a(host_output.o)
                0x000000000000d272                HCI_LE_SetResolvableAddressTimeoutCmd
 .text.HCI_SendDataPkt
                0x000000000000d276        0x4 G:\╄    单片机\WCH\CH573\Projects\CH571_BLE_Hygrothermograph\LIB\libCH57xBLE.a(host_output.o)
                0x000000000000d276                HCI_SendDataPkt
 .text.HCI_ValidConnTimeParams
                0x000000000000d27a       0x4c G:\╄    单片机\WCH\CH573\Projects\CH571_BLE_Hygrothermograph\LIB\libCH57xBLE.a(host_output.o)
                0x000000000000d27a                HCI_ValidConnTimeParams
 .text.ll_connect_get_slave_number
                0x000000000000d2c6       0x20 G:\╄    单片机\WCH\CH573\Projects\CH571_BLE_Hygrothermograph\LIB\libCH57xBLE.a(ll_connect.o)
                0x000000000000d2c6                ll_connect_get_slave_number
 .text.ll_connect_update_get_offset
                0x000000000000d2e6       0xa8 G:\╄    单片机\WCH\CH573\Projects\CH571_BLE_Hygrothermograph\LIB\libCH57xBLE.a(ll_connect.o)
                0x000000000000d2e6                ll_connect_update_get_offset
 .text.LL_GetNextConnectEventTime
                0x000000000000d38e      0x12c G:\╄    单片机\WCH\CH573\Projects\CH571_BLE_Hygrothermograph\LIB\libCH57xBLE.a(ll_connect.o)
                0x000000000000d38e                LL_GetNextConnectEventTime
 .text.LL_ConnectToStandby
                0x000000000000d4ba       0x80 G:\╄    单片机\WCH\CH573\Projects\CH571_BLE_Hygrothermograph\LIB\libCH57xBLE.a(ll_connect.o)
                0x000000000000d4ba                LL_ConnectToStandby
 .text.LL_ConnectShut
                0x000000000000d53a       0xe2 G:\╄    单片机\WCH\CH573\Projects\CH571_BLE_Hygrothermograph\LIB\libCH57xBLE.a(ll_connect.o)
                0x000000000000d53a                LL_ConnectShut
 .text.LL_CoreGetCore
                0x000000000000d61c       0x1c G:\╄    单片机\WCH\CH573\Projects\CH571_BLE_Hygrothermograph\LIB\libCH57xBLE.a(ll_core.o)
                0x000000000000d61c                LL_CoreGetCore
 .text.LL_CoreGetDataList
                0x000000000000d638       0x36 G:\╄    单片机\WCH\CH573\Projects\CH571_BLE_Hygrothermograph\LIB\libCH57xBLE.a(ll_core.o)
                0x000000000000d638                LL_CoreGetDataList
 .text.LL_CoreDataListFree
                0x000000000000d66e       0x30 G:\╄    单片机\WCH\CH573\Projects\CH571_BLE_Hygrothermograph\LIB\libCH57xBLE.a(ll_core.o)
                0x000000000000d66e                LL_CoreDataListFree
 .text.LL_CoreClose
                0x000000000000d69e       0x8a G:\╄    单片机\WCH\CH573\Projects\CH571_BLE_Hygrothermograph\LIB\libCH57xBLE.a(ll_core.o)
                0x000000000000d69e                LL_CoreClose
 .text.LL_CoreInit
                0x000000000000d728       0x10 G:\╄    单片机\WCH\CH573\Projects\CH571_BLE_Hygrothermograph\LIB\libCH57xBLE.a(ll_core.o)
                0x000000000000d728                LL_CoreInit
 .text.LL_ReportGenerateEvent
                0x000000000000d738       0x42 G:\╄    单片机\WCH\CH573\Projects\CH571_BLE_Hygrothermograph\LIB\libCH57xBLE.a(ll_report.o)
                0x000000000000d738                LL_ReportGenerateEvent
 .text.LL_ProcessTMOSReportMsg
                0x000000000000d77a      0x598 G:\╄    单片机\WCH\CH573\Projects\CH571_BLE_Hygrothermograph\LIB\libCH57xBLE.a(ll_report.o)
                0x000000000000d77a                LL_ProcessTMOSReportMsg
 .text.LL_ScanToStandby
                0x000000000000dd12       0x9a G:\╄    单片机\WCH\CH573\Projects\CH571_BLE_Hygrothermograph\LIB\libCH57xBLE.a(ll_scan.o)
                0x000000000000dd12                LL_ScanToStandby
 .text.LL_WhitelistLookup
                0x000000000000ddac       0x4e G:\╄    单片机\WCH\CH573\Projects\CH571_BLE_Hygrothermograph\LIB\libCH57xBLE.a(ll_whitelist.o)
                0x000000000000ddac                LL_WhitelistLookup
 .text.LL_WhitelistAdd
                0x000000000000ddfa       0xb4 G:\╄    单片机\WCH\CH573\Projects\CH571_BLE_Hygrothermograph\LIB\libCH57xBLE.a(ll_whitelist.o)
                0x000000000000ddfa                LL_WhitelistAdd
 .text.LL_WhitelistClearAll
                0x000000000000deae       0x4a G:\╄    单片机\WCH\CH573\Projects\CH571_BLE_Hygrothermograph\LIB\libCH57xBLE.a(ll_whitelist.o)
                0x000000000000deae                LL_WhitelistClearAll
 .text.LL_WhitelistInit
                0x000000000000def8       0x12 G:\╄    单片机\WCH\CH573\Projects\CH571_BLE_Hygrothermograph\LIB\libCH57xBLE.a(ll_whitelist.o)
                0x000000000000def8                LL_WhitelistInit
 .text.AES_DevAESEnc
                0x000000000000df0a      0x1a2 G:\╄    单片机\WCH\CH573\Projects\CH571_BLE_Hygrothermograph\LIB\libCH57xBLE.a(aes.o)
                0x000000000000df0a                AES_DevAESEnc
 .text.LL_Encrypt
                0x000000000000e0ac       0x10 G:\╄    单片机\WCH\CH573\Projects\CH571_BLE_Hygrothermograph\LIB\libCH57xBLE.a(aes.o)
                0x000000000000e0ac                LL_Encrypt
 .text.BB_DevInit
                0x000000000000e0bc       0xba G:\╄    单片机\WCH\CH573\Projects\CH571_BLE_Hygrothermograph\LIB\libCH57xBLE.a(bb.o)
                0x000000000000e0bc                BB_DevInit
 .text.DMA_DevInit
                0x000000000000e176       0x48 G:\╄    单片机\WCH\CH573\Projects\CH571_BLE_Hygrothermograph\LIB\libCH57xBLE.a(dma.o)
                0x000000000000e176                DMA_DevInit
 .text.ll_tx_wait_pkt_recv
                0x000000000000e1be       0x24 G:\╄    单片机\WCH\CH573\Projects\CH571_BLE_Hygrothermograph\LIB\libCH57xBLE.a(ip.o)
                0x000000000000e1be                ll_tx_wait_pkt_recv
 .text.ll_tx_set_wait_finish
                0x000000000000e1e2       0x2e G:\╄    单片机\WCH\CH573\Projects\CH571_BLE_Hygrothermograph\LIB\libCH57xBLE.a(ip.o)
                0x000000000000e1e2                ll_tx_set_wait_finish
 .text.ll_multi_states_check
                0x000000000000e210       0x34 G:\╄    单片机\WCH\CH573\Projects\CH571_BLE_Hygrothermograph\LIB\libCH57xBLE.a(ip.o)
                0x000000000000e210                ll_multi_states_check
 .text.ble_ll_hw_api_shut
                0x000000000000e244       0x56 G:\╄    单片机\WCH\CH573\Projects\CH571_BLE_Hygrothermograph\LIB\libCH57xBLE.a(ip.o)
                0x000000000000e244                ble_ll_hw_api_shut
 .text.ble_ll_hw_api_rx
                0x000000000000e29a       0xe0 G:\╄    单片机\WCH\CH573\Projects\CH571_BLE_Hygrothermograph\LIB\libCH57xBLE.a(ip.o)
                0x000000000000e29a                ble_ll_hw_api_rx
 .text.ll_multi_states_process
                0x000000000000e37a      0x114 G:\╄    单片机\WCH\CH573\Projects\CH571_BLE_Hygrothermograph\LIB\libCH57xBLE.a(ip.o)
                0x000000000000e37a                ll_multi_states_process
 .text.ll_hw_api_tx_direct_test
                0x000000000000e48e      0x112 G:\╄    单片机\WCH\CH573\Projects\CH571_BLE_Hygrothermograph\LIB\libCH57xBLE.a(ip.o)
                0x000000000000e48e                ll_hw_api_tx_direct_test
 .text.BLE_RegInit
                0x000000000000e5a0       0x5e G:\╄    单片机\WCH\CH573\Projects\CH571_BLE_Hygrothermograph\LIB\libCH57xBLE.a(ip.o)
                0x000000000000e5a0                BLE_RegInit
 .text.BLE_ADCTune
                0x000000000000e5fe       0x4c G:\╄    单片机\WCH\CH573\Projects\CH571_BLE_Hygrothermograph\LIB\libCH57xBLE.a(ip.o)
                0x000000000000e5fe                BLE_ADCTune
 .text.BLE_IPCoreInit
                0x000000000000e64a       0x94 G:\╄    单片机\WCH\CH573\Projects\CH571_BLE_Hygrothermograph\LIB\libCH57xBLE.a(ip.o)
                0x000000000000e64a                BLE_IPCoreInit
 .text.LLE_DevInit
                0x000000000000e6de       0x54 G:\╄    单片机\WCH\CH573\Projects\CH571_BLE_Hygrothermograph\LIB\libCH57xBLE.a(lle.o)
                0x000000000000e6de                LLE_DevInit
 .text.RF_DevSetChannel
                0x000000000000e732      0x13c G:\╄    单片机\WCH\CH573\Projects\CH571_BLE_Hygrothermograph\LIB\libCH57xBLE.a(rf_fh.o)
                0x000000000000e732                RF_DevSetChannel
 .text.RF_FrequencyHoppingChange
                0x000000000000e86e       0x98 G:\╄    单片机\WCH\CH573\Projects\CH571_BLE_Hygrothermograph\LIB\libCH57xBLE.a(rf_fh.o)
                0x000000000000e86e                RF_FrequencyHoppingChange
 .text.RF_Rx    0x000000000000e906      0x1dc G:\╄    单片机\WCH\CH573\Projects\CH571_BLE_Hygrothermograph\LIB\libCH57xBLE.a(rf_fh.o)
                0x000000000000e906                RF_Rx
 .text.RFEND_Reset
                0x000000000000eae2       0xa8 G:\╄    单片机\WCH\CH573\Projects\CH571_BLE_Hygrothermograph\LIB\libCH57xBLE.a(rfend.o)
                0x000000000000eae2                RFEND_Reset
 .text.RFEND_DevInit
                0x000000000000eb8a      0x172 G:\╄    单片机\WCH\CH573\Projects\CH571_BLE_Hygrothermograph\LIB\libCH57xBLE.a(rfend.o)
                0x000000000000eb8a                RFEND_DevInit
 .text.RFEND_RXFilter
                0x000000000000ecfc       0x7c G:\╄    单片机\WCH\CH573\Projects\CH571_BLE_Hygrothermograph\LIB\libCH57xBLE.a(rfend.o)
                0x000000000000ecfc                RFEND_RXFilter
 .text.RFEND_RXAdc
                0x000000000000ed78      0x14c G:\╄    单片机\WCH\CH573\Projects\CH571_BLE_Hygrothermograph\LIB\libCH57xBLE.a(rfend.o)
                0x000000000000ed78                RFEND_RXAdc
 .text.RFEND_TXCtune
                0x000000000000eec4      0xcfc G:\╄    单片机\WCH\CH573\Projects\CH571_BLE_Hygrothermograph\LIB\libCH57xBLE.a(rfend.o)
                0x000000000000eec4                RFEND_TXCtune
 .text.RFEND_TXFtune
                0x000000000000fbc0       0x10 G:\╄    单片机\WCH\CH573\Projects\CH571_BLE_Hygrothermograph\LIB\libCH57xBLE.a(rfend.o)
                0x000000000000fbc0                RFEND_TXFtune
 .text.API_DisconnectCmd
                0x000000000000fbd0       0x16 G:\╄    单片机\WCH\CH573\Projects\CH571_BLE_Hygrothermograph\LIB\libCH57xBLE.a(api_c.o)
                0x000000000000fbd0                API_DisconnectCmd
 .text.API_MD_DisconnectCmd
                0x000000000000fbe6        0x2 G:\╄    单片机\WCH\CH573\Projects\CH571_BLE_Hygrothermograph\LIB\libCH57xBLE.a(api_c.o)
                0x000000000000fbe6                API_MD_DisconnectCmd
 .text.API_HostNumCompletedPktCmd
                0x000000000000fbe8       0x34 G:\╄    单片机\WCH\CH573\Projects\CH571_BLE_Hygrothermograph\LIB\libCH57xBLE.a(api_c.o)
                0x000000000000fbe8                API_HostNumCompletedPktCmd
 .text.API_ReadBDADDRCmd
                0x000000000000fc1c       0x24 G:\╄    单片机\WCH\CH573\Projects\CH571_BLE_Hygrothermograph\LIB\libCH57xBLE.a(api_c.o)
                0x000000000000fc1c                API_ReadBDADDRCmd
 .text.API_LE_ReadBufSizeCmd
                0x000000000000fc40       0x24 G:\╄    单片机\WCH\CH573\Projects\CH571_BLE_Hygrothermograph\LIB\libCH57xBLE.a(api_c.o)
                0x000000000000fc40                API_LE_ReadBufSizeCmd
 .text.API_LE_SetRandomAddressCmd
                0x000000000000fc64       0x22 G:\╄    单片机\WCH\CH573\Projects\CH571_BLE_Hygrothermograph\LIB\libCH57xBLE.a(api_c.o)
                0x000000000000fc64                API_LE_SetRandomAddressCmd
 .text.API_LE_SetAdvParamCmd
                0x000000000000fc86       0x22 G:\╄    单片机\WCH\CH573\Projects\CH571_BLE_Hygrothermograph\LIB\libCH57xBLE.a(api_c.o)
                0x000000000000fc86                API_LE_SetAdvParamCmd
 .text.API_LE_SetAdvDataCmd
                0x000000000000fca8       0x22 G:\╄    单片机\WCH\CH573\Projects\CH571_BLE_Hygrothermograph\LIB\libCH57xBLE.a(api_c.o)
                0x000000000000fca8                API_LE_SetAdvDataCmd
 .text.API_LE_SetScanRspDataCmd
                0x000000000000fcca       0x22 G:\╄    单片机\WCH\CH573\Projects\CH571_BLE_Hygrothermograph\LIB\libCH57xBLE.a(api_c.o)
                0x000000000000fcca                API_LE_SetScanRspDataCmd
 .text.API_LE_SetAdvEnableCmd
                0x000000000000fcec       0x22 G:\╄    单片机\WCH\CH573\Projects\CH571_BLE_Hygrothermograph\LIB\libCH57xBLE.a(api_c.o)
                0x000000000000fcec                API_LE_SetAdvEnableCmd
 .text.API_LE_SetScanEnableCmd
                0x000000000000fd0e       0x24 G:\╄    单片机\WCH\CH573\Projects\CH571_BLE_Hygrothermograph\LIB\libCH57xBLE.a(api_c.o)
                0x000000000000fd0e                API_LE_SetScanEnableCmd
 .text.API_LE_CreateConnCancelCmd
                0x000000000000fd32       0x22 G:\╄    单片机\WCH\CH573\Projects\CH571_BLE_Hygrothermograph\LIB\libCH57xBLE.a(api_c.o)
                0x000000000000fd32                API_LE_CreateConnCancelCmd
 .text.API_LE_ClearWhiteListCmd
                0x000000000000fd54       0x24 G:\╄    单片机\WCH\CH573\Projects\CH571_BLE_Hygrothermograph\LIB\libCH57xBLE.a(api_c.o)
                0x000000000000fd54                API_LE_ClearWhiteListCmd
 .text.API_LE_AddWhiteListCmd
                0x000000000000fd78       0x24 G:\╄    单片机\WCH\CH573\Projects\CH571_BLE_Hygrothermograph\LIB\libCH57xBLE.a(api_c.o)
                0x000000000000fd78                API_LE_AddWhiteListCmd
 .text.API_LE_ConnUpdateCmd
                0x000000000000fd9c       0x1e G:\╄    单片机\WCH\CH573\Projects\CH571_BLE_Hygrothermograph\LIB\libCH57xBLE.a(api_c.o)
                0x000000000000fd9c                API_LE_ConnUpdateCmd
 .text.API_LE_RandCmd
                0x000000000000fdba       0x24 G:\╄    单片机\WCH\CH573\Projects\CH571_BLE_Hygrothermograph\LIB\libCH57xBLE.a(api_c.o)
                0x000000000000fdba                API_LE_RandCmd
 .text.API_LE_StartEncryptCmd
                0x000000000000fdde       0x18 G:\╄    单片机\WCH\CH573\Projects\CH571_BLE_Hygrothermograph\LIB\libCH57xBLE.a(api_c.o)
                0x000000000000fdde                API_LE_StartEncryptCmd
 .text.API_LE_LtkReqReplyCmd
                0x000000000000fdf6       0x30 G:\╄    单片机\WCH\CH573\Projects\CH571_BLE_Hygrothermograph\LIB\libCH57xBLE.a(api_c.o)
                0x000000000000fdf6                API_LE_LtkReqReplyCmd
 .text.API_LE_LtkReqNegReplyCmd
                0x000000000000fe26       0x30 G:\╄    单片机\WCH\CH573\Projects\CH571_BLE_Hygrothermograph\LIB\libCH57xBLE.a(api_c.o)
                0x000000000000fe26                API_LE_LtkReqNegReplyCmd
 .text.API_LE_RemoteConnParamReqReplyCmd
                0x000000000000fe56       0x30 G:\╄    单片机\WCH\CH573\Projects\CH571_BLE_Hygrothermograph\LIB\libCH57xBLE.a(api_c.o)
                0x000000000000fe56                API_LE_RemoteConnParamReqReplyCmd
 .text.API_LE_RemoteConnParamReqNegReplyCmd
                0x000000000000fe86       0x32 G:\╄    单片机\WCH\CH573\Projects\CH571_BLE_Hygrothermograph\LIB\libCH57xBLE.a(api_c.o)
                0x000000000000fe86                API_LE_RemoteConnParamReqNegReplyCmd
 .text.API_LE_AddDeviceToResolvingList
                0x000000000000feb8       0x26 G:\╄    单片机\WCH\CH573\Projects\CH571_BLE_Hygrothermograph\LIB\libCH57xBLE.a(api_c.o)
                0x000000000000feb8                API_LE_AddDeviceToResolvingList
 .text.API_LE_ClearResolvingList
                0x000000000000fede       0x26 G:\╄    单片机\WCH\CH573\Projects\CH571_BLE_Hygrothermograph\LIB\libCH57xBLE.a(api_c.o)
                0x000000000000fede                API_LE_ClearResolvingList
 .text.API_LE_SetAddressResolvableEnableCmd
                0x000000000000ff04       0x26 G:\╄    单片机\WCH\CH573\Projects\CH571_BLE_Hygrothermograph\LIB\libCH57xBLE.a(api_c.o)
                0x000000000000ff04                API_LE_SetAddressResolvableEnableCmd
 .text.API_LE_SetResolvableAddressTimeoutCmd
                0x000000000000ff2a       0x26 G:\╄    单片机\WCH\CH573\Projects\CH571_BLE_Hygrothermograph\LIB\libCH57xBLE.a(api_c.o)
                0x000000000000ff2a                API_LE_SetResolvableAddressTimeoutCmd
 .text.API_SendDataPkt
                0x000000000000ff50        0x4 G:\╄    单片机\WCH\CH573\Projects\CH571_BLE_Hygrothermograph\LIB\libCH57xBLE.a(api_c.o)
                0x000000000000ff50                API_SendDataPkt
 .text.CreatePRBS9
                0x000000000000ff54       0x52 G:\╄    单片机\WCH\CH573\Projects\CH571_BLE_Hygrothermograph\LIB\libCH57xBLE.a(ctl_input.o)
                0x000000000000ff54                CreatePRBS9
 .text.CreatePRBS15
                0x000000000000ffa6       0x5a G:\╄    单片机\WCH\CH573\Projects\CH571_BLE_Hygrothermograph\LIB\libCH57xBLE.a(ctl_input.o)
                0x000000000000ffa6                CreatePRBS15
 .text.LL_TransmitterTest
                0x0000000000010000      0x13a G:\╄    单片机\WCH\CH573\Projects\CH571_BLE_Hygrothermograph\LIB\libCH57xBLE.a(ctl_input.o)
                0x0000000000010000                LL_TransmitterTest
 .text.LL_Disconnect
                0x000000000001013a       0x3e G:\╄    单片机\WCH\CH573\Projects\CH571_BLE_Hygrothermograph\LIB\libCH57xBLE.a(ctl_input.o)
                0x000000000001013a                LL_Disconnect
 .text.LL_MD_Disconnect
                0x0000000000010178       0x28 G:\╄    单片机\WCH\CH573\Projects\CH571_BLE_Hygrothermograph\LIB\libCH57xBLE.a(ctl_input.o)
                0x0000000000010178                LL_MD_Disconnect
 .text.LL_ReadBDAddr
                0x00000000000101a0       0x24 G:\╄    单片机\WCH\CH573\Projects\CH571_BLE_Hygrothermograph\LIB\libCH57xBLE.a(ctl_input.o)
                0x00000000000101a0                LL_ReadBDAddr
 .text.LL_LE_ReadBufSize
                0x00000000000101c4       0x20 G:\╄    单片机\WCH\CH573\Projects\CH571_BLE_Hygrothermograph\LIB\libCH57xBLE.a(ctl_input.o)
                0x00000000000101c4                LL_LE_ReadBufSize
 .text.LL_SetRandomAddress
                0x00000000000101e4       0xae G:\╄    单片机\WCH\CH573\Projects\CH571_BLE_Hygrothermograph\LIB\libCH57xBLE.a(ctl_input.o)
                0x00000000000101e4                LL_SetRandomAddress
 .text.LL_SetAdvParam
                0x0000000000010292       0xd0 G:\╄    单片机\WCH\CH573\Projects\CH571_BLE_Hygrothermograph\LIB\libCH57xBLE.a(ctl_input.o)
                0x0000000000010292                LL_SetAdvParam
 .text.LL_SetAdvData
                0x0000000000010362       0x48 G:\╄    单片机\WCH\CH573\Projects\CH571_BLE_Hygrothermograph\LIB\libCH57xBLE.a(ctl_input.o)
                0x0000000000010362                LL_SetAdvData
 .text.LL_SetScanRspData
                0x00000000000103aa       0x48 G:\╄    单片机\WCH\CH573\Projects\CH571_BLE_Hygrothermograph\LIB\libCH57xBLE.a(ctl_input.o)
                0x00000000000103aa                LL_SetScanRspData
 .text.LL_SetAdvControl
                0x00000000000103f2      0x10c G:\╄    单片机\WCH\CH573\Projects\CH571_BLE_Hygrothermograph\LIB\libCH57xBLE.a(ctl_input.o)
                0x00000000000103f2                LL_SetAdvControl
 .text.LL_SetScanEnable
                0x00000000000104fe       0x94 G:\╄    单片机\WCH\CH573\Projects\CH571_BLE_Hygrothermograph\LIB\libCH57xBLE.a(ctl_input.o)
                0x00000000000104fe                LL_SetScanEnable
 .text.LL_CreateConnCancel
                0x0000000000010592       0x26 G:\╄    单片机\WCH\CH573\Projects\CH571_BLE_Hygrothermograph\LIB\libCH57xBLE.a(ctl_input.o)
                0x0000000000010592                LL_CreateConnCancel
 .text.LL_RemoteConnParamReqReply
                0x00000000000105b8      0x140 G:\╄    单片机\WCH\CH573\Projects\CH571_BLE_Hygrothermograph\LIB\libCH57xBLE.a(ctl_input.o)
                0x00000000000105b8                LL_RemoteConnParamReqReply
 .text.LL_RemoteConnParamReqNegReply
                0x00000000000106f8       0x3a G:\╄    单片机\WCH\CH573\Projects\CH571_BLE_Hygrothermograph\LIB\libCH57xBLE.a(ctl_input.o)
                0x00000000000106f8                LL_RemoteConnParamReqNegReply
 .text.LL_AddWhiteListDevice
                0x0000000000010732       0x8a G:\╄    单片机\WCH\CH573\Projects\CH571_BLE_Hygrothermograph\LIB\libCH57xBLE.a(ctl_input.o)
                0x0000000000010732                LL_AddWhiteListDevice
 .text.LL_ConnUpdate
                0x00000000000107bc      0x13e G:\╄    单片机\WCH\CH573\Projects\CH571_BLE_Hygrothermograph\LIB\libCH57xBLE.a(ctl_input.o)
                0x00000000000107bc                LL_ConnUpdate
 .text.LL_ClearWhiteList
                0x00000000000108fa       0x52 G:\╄    单片机\WCH\CH573\Projects\CH571_BLE_Hygrothermograph\LIB\libCH57xBLE.a(ctl_input.o)
                0x00000000000108fa                LL_ClearWhiteList
 .text.LL_Rand  0x000000000001094c       0x36 G:\╄    单片机\WCH\CH573\Projects\CH571_BLE_Hygrothermograph\LIB\libCH57xBLE.a(ctl_input.o)
                0x000000000001094c                LL_Rand
 .text.LL_StartEncrypt
                0x0000000000010982      0x1aa G:\╄    单片机\WCH\CH573\Projects\CH571_BLE_Hygrothermograph\LIB\libCH57xBLE.a(ctl_input.o)
                0x0000000000010982                LL_StartEncrypt
 .text.LL_LtkReqReply
                0x0000000000010b2c       0xba G:\╄    单片机\WCH\CH573\Projects\CH571_BLE_Hygrothermograph\LIB\libCH57xBLE.a(ctl_input.o)
                0x0000000000010b2c                LL_LtkReqReply
 .text.LL_LtkReqNegReply
                0x0000000000010be6       0x4a G:\╄    单片机\WCH\CH573\Projects\CH571_BLE_Hygrothermograph\LIB\libCH57xBLE.a(ctl_input.o)
                0x0000000000010be6                LL_LtkReqNegReply
 .text.LL_AddDeviceToResolvingList
                0x0000000000010c30       0xac G:\╄    单片机\WCH\CH573\Projects\CH571_BLE_Hygrothermograph\LIB\libCH57xBLE.a(ctl_input.o)
                0x0000000000010c30                LL_AddDeviceToResolvingList
 .text.LL_ClearResolvingList
                0x0000000000010cdc       0x10 G:\╄    单片机\WCH\CH573\Projects\CH571_BLE_Hygrothermograph\LIB\libCH57xBLE.a(ctl_input.o)
                0x0000000000010cdc                LL_ClearResolvingList
 .text.LL_SetAddressResolvableEnable
                0x0000000000010cec       0x54 G:\╄    单片机\WCH\CH573\Projects\CH571_BLE_Hygrothermograph\LIB\libCH57xBLE.a(ctl_input.o)
                0x0000000000010cec                LL_SetAddressResolvableEnable
 .text.LL_SetResolvableAddressTimeout
                0x0000000000010d40       0x4c G:\╄    单片机\WCH\CH573\Projects\CH571_BLE_Hygrothermograph\LIB\libCH57xBLE.a(ctl_input.o)
                0x0000000000010d40                LL_SetResolvableAddressTimeout
 .text.LL_SendDataPkt
                0x0000000000010d8c       0xa8 G:\╄    单片机\WCH\CH573\Projects\CH571_BLE_Hygrothermograph\LIB\libCH57xBLE.a(ctl_input.o)
                0x0000000000010d8c                LL_SendDataPkt
 .text.HCI_LE_ConnectionCompleteCback
                0x0000000000010e34        0xa G:\╄    单片机\WCH\CH573\Projects\CH571_BLE_Hygrothermograph\LIB\libCH57xBLE.a(ctl_output.o)
                0x0000000000010e34                HCI_LE_ConnectionCompleteCback
 .text.HCI_LE_ConnectionUpdateCompleteCback
                0x0000000000010e3e        0x4 G:\╄    单片机\WCH\CH573\Projects\CH571_BLE_Hygrothermograph\LIB\libCH57xBLE.a(ctl_output.o)
                0x0000000000010e3e                HCI_LE_ConnectionUpdateCompleteCback
 .text.HCI_LE_ReadRemoteUsedFeaturesCompleteCback
                0x0000000000010e42        0x4 G:\╄    单片机\WCH\CH573\Projects\CH571_BLE_Hygrothermograph\LIB\libCH57xBLE.a(ctl_output.o)
                0x0000000000010e42                HCI_LE_ReadRemoteUsedFeaturesCompleteCback
 .text.HCI_LE_LongTermKeyRequestCback
                0x0000000000010e46        0x4 G:\╄    单片机\WCH\CH573\Projects\CH571_BLE_Hygrothermograph\LIB\libCH57xBLE.a(ctl_output.o)
                0x0000000000010e46                HCI_LE_LongTermKeyRequestCback
 .text.HCI_LE_RemoteConnectionParameterRequestCback
                0x0000000000010e4a        0x4 G:\╄    单片机\WCH\CH573\Projects\CH571_BLE_Hygrothermograph\LIB\libCH57xBLE.a(ctl_output.o)
                0x0000000000010e4a                HCI_LE_RemoteConnectionParameterRequestCback
 .text.HCI_RemoteConnectionParameterRequestCback
                0x0000000000010e4e        0x4 G:\╄    单片机\WCH\CH573\Projects\CH571_BLE_Hygrothermograph\LIB\libCH57xBLE.a(ctl_output.o)
                0x0000000000010e4e                HCI_RemoteConnectionParameterRequestCback
 .text.HCI_LE_DataLengthChangeCback
                0x0000000000010e52        0x4 G:\╄    单片机\WCH\CH573\Projects\CH571_BLE_Hygrothermograph\LIB\libCH57xBLE.a(ctl_output.o)
                0x0000000000010e52                HCI_LE_DataLengthChangeCback
 .text.HCI_LE_EnhancedConnectionCompleteCback
                0x0000000000010e56       0x16 G:\╄    单片机\WCH\CH573\Projects\CH571_BLE_Hygrothermograph\LIB\libCH57xBLE.a(ctl_output.o)
                0x0000000000010e56                HCI_LE_EnhancedConnectionCompleteCback
 .text.HCI_DisconnectionCompleteCback
                0x0000000000010e6c        0x4 G:\╄    单片机\WCH\CH573\Projects\CH571_BLE_Hygrothermograph\LIB\libCH57xBLE.a(ctl_output.o)
                0x0000000000010e6c                HCI_DisconnectionCompleteCback
 .text.HCI_EncryptionChangeCback
                0x0000000000010e70        0x4 G:\╄    单片机\WCH\CH573\Projects\CH571_BLE_Hygrothermograph\LIB\libCH57xBLE.a(ctl_output.o)
                0x0000000000010e70                HCI_EncryptionChangeCback
 .text.HCI_ReadRemoteVersionInfoCback
                0x0000000000010e74        0x4 G:\╄    单片机\WCH\CH573\Projects\CH571_BLE_Hygrothermograph\LIB\libCH57xBLE.a(ctl_output.o)
                0x0000000000010e74                HCI_ReadRemoteVersionInfoCback
 .text.HCI_CommandCompleteCback
                0x0000000000010e78        0x4 G:\╄    单片机\WCH\CH573\Projects\CH571_BLE_Hygrothermograph\LIB\libCH57xBLE.a(ctl_output.o)
                0x0000000000010e78                HCI_CommandCompleteCback
 .text.HCI_CommandStatusCback
                0x0000000000010e7c        0x4 G:\╄    单片机\WCH\CH573\Projects\CH571_BLE_Hygrothermograph\LIB\libCH57xBLE.a(ctl_output.o)
                0x0000000000010e7c                HCI_CommandStatusCback
 .text.HCI_NumberOfCompletedPacketsCback
                0x0000000000010e80        0x4 G:\╄    单片机\WCH\CH573\Projects\CH571_BLE_Hygrothermograph\LIB\libCH57xBLE.a(ctl_output.o)
                0x0000000000010e80                HCI_NumberOfCompletedPacketsCback
 .text.HCI_DataBufferOverflowCback
                0x0000000000010e84        0x4 G:\╄    单片机\WCH\CH573\Projects\CH571_BLE_Hygrothermograph\LIB\libCH57xBLE.a(ctl_output.o)
                0x0000000000010e84                HCI_DataBufferOverflowCback
 .text.HCI_EncryptionKeyRefreshCompleteCback
                0x0000000000010e88        0x4 G:\╄    单片机\WCH\CH573\Projects\CH571_BLE_Hygrothermograph\LIB\libCH57xBLE.a(ctl_output.o)
                0x0000000000010e88                HCI_EncryptionKeyRefreshCompleteCback
 .text.HCI_AuthenticatedPayloadTimeoutExpiredCback
                0x0000000000010e8c        0x2 G:\╄    单片机\WCH\CH573\Projects\CH571_BLE_Hygrothermograph\LIB\libCH57xBLE.a(ctl_output.o)
                0x0000000000010e8c                HCI_AuthenticatedPayloadTimeoutExpiredCback
 .text.HCI_RxDataCompleteCback
                0x0000000000010e8e        0x4 G:\╄    单片机\WCH\CH573\Projects\CH571_BLE_Hygrothermograph\LIB\libCH57xBLE.a(ctl_output.o)
                0x0000000000010e8e                HCI_RxDataCompleteCback
 .text.GAPRole_BroadcasterProcessEvent
                0x0000000000010e92      0x16e G:\╄    单片机\WCH\CH573\Projects\CH571_BLE_Hygrothermograph\LIB\libCH57xBLE.a(broadcaster.o)
                0x0000000000010e92                GAPRole_BroadcasterProcessEvent
 .text.GAPRole_BroadcasterStartDevice
                0x0000000000011000       0x32 G:\╄    单片机\WCH\CH573\Projects\CH571_BLE_Hygrothermograph\LIB\libCH57xBLE.a(broadcaster.o)
                0x0000000000011000                GAPRole_BroadcasterStartDevice
 .text.GAPRole_BroadcasterEnable
                0x0000000000011032       0x5a G:\╄    单片机\WCH\CH573\Projects\CH571_BLE_Hygrothermograph\LIB\libCH57xBLE.a(broadcaster.o)
                0x0000000000011032                GAPRole_BroadcasterEnable
 .text.gapBondMgrInvertCharCfgItem
                0x000000000001108c       0x24 G:\╄    单片机\WCH\CH573\Projects\CH571_BLE_Hygrothermograph\LIB\libCH57xBLE.a(gapbondmgr.o)
 .text.gapBondMgrGetStateFlags
                0x00000000000110b0       0x2a G:\╄    单片机\WCH\CH573\Projects\CH571_BLE_Hygrothermograph\LIB\libCH57xBLE.a(gapbondmgr.o)
 .text.gapBondMgrBondTotal
                0x00000000000110da       0x4c G:\╄    单片机\WCH\CH573\Projects\CH571_BLE_Hygrothermograph\LIB\libCH57xBLE.a(gapbondmgr.o)
 .text.gapBondFreeAuthEvt
                0x0000000000011126       0x34 G:\╄    单片机\WCH\CH573\Projects\CH571_BLE_Hygrothermograph\LIB\libCH57xBLE.a(gapbondmgr.o)
 .text.gapBondMgrEraseBonding
                0x000000000001115a      0x126 G:\╄    单片机\WCH\CH573\Projects\CH571_BLE_Hygrothermograph\LIB\libCH57xBLE.a(gapbondmgr.o)
 .text.gapBondMgrEraseAllBondings
                0x0000000000011280       0x2a G:\╄    单片机\WCH\CH573\Projects\CH571_BLE_Hygrothermograph\LIB\libCH57xBLE.a(gapbondmgr.o)
 .text.gapBondMgr_SyncWhiteList
                0x00000000000112aa       0x4c G:\╄    单片机\WCH\CH573\Projects\CH571_BLE_Hygrothermograph\LIB\libCH57xBLE.a(gapbondmgr.o)
 .text.gapBondMgr_SyncResolveList
                0x00000000000112f6       0x94 G:\╄    单片机\WCH\CH573\Projects\CH571_BLE_Hygrothermograph\LIB\libCH57xBLE.a(gapbondmgr.o)
 .text.gapBondSetupPrivFlag
                0x000000000001138a       0x28 G:\╄    单片机\WCH\CH573\Projects\CH571_BLE_Hygrothermograph\LIB\libCH57xBLE.a(gapbondmgr.o)
 .text.gapBondMgrReadBonds
                0x00000000000113b2       0xac G:\╄    单片机\WCH\CH573\Projects\CH571_BLE_Hygrothermograph\LIB\libCH57xBLE.a(gapbondmgr.o)
 .text.gapBondMgrSendServiceChange
                0x000000000001145e        0xc G:\╄    单片机\WCH\CH573\Projects\CH571_BLE_Hygrothermograph\LIB\libCH57xBLE.a(gapbondmgr.o)
 .text.gapBondMgrBondReq
                0x000000000001146a       0x70 G:\╄    单片机\WCH\CH573\Projects\CH571_BLE_Hygrothermograph\LIB\libCH57xBLE.a(gapbondmgr.o)
 .text.gapBondMgrAuthenticate
                0x00000000000114da      0x180 G:\╄    单片机\WCH\CH573\Projects\CH571_BLE_Hygrothermograph\LIB\libCH57xBLE.a(gapbondmgr.o)
 .text.gapBondMgrFindAddr
                0x000000000001165a       0x46 G:\╄    单片机\WCH\CH573\Projects\CH571_BLE_Hygrothermograph\LIB\libCH57xBLE.a(gapbondmgr.o)
 .text.gapBondMgrAddBond
                0x00000000000116a0      0x19c G:\╄    单片机\WCH\CH573\Projects\CH571_BLE_Hygrothermograph\LIB\libCH57xBLE.a(gapbondmgr.o)
 .text.gapBondPairStateCB
                0x000000000001183c       0x48 G:\╄    单片机\WCH\CH573\Projects\CH571_BLE_Hygrothermograph\LIB\libCH57xBLE.a(gapbondmgr.o)
 .text.gapBondPasscodeCB
                0x0000000000011884       0x82 G:\╄    单片机\WCH\CH573\Projects\CH571_BLE_Hygrothermograph\LIB\libCH57xBLE.a(gapbondmgr.o)
 .text.gapBondMgrGetPublicAddr
                0x0000000000011906       0x4a G:\╄    单片机\WCH\CH573\Projects\CH571_BLE_Hygrothermograph\LIB\libCH57xBLE.a(gapbondmgr.o)
 .text.gapBondMgrChangeState.constprop.8
                0x0000000000011950       0x74 G:\╄    单片机\WCH\CH573\Projects\CH571_BLE_Hygrothermograph\LIB\libCH57xBLE.a(gapbondmgr.o)
 .text.gapBondMgrUpdateCharCfg
                0x00000000000119c4       0xde G:\╄    单片机\WCH\CH573\Projects\CH571_BLE_Hygrothermograph\LIB\libCH57xBLE.a(gapbondmgr.o)
 .text.GAPBondMgr_ParamInit
                0x0000000000011aa2      0x16e G:\╄    单片机\WCH\CH573\Projects\CH571_BLE_Hygrothermograph\LIB\libCH57xBLE.a(gapbondmgr.o)
                0x0000000000011aa2                GAPBondMgr_ParamInit
 .text.GAPBondMgr_Erase
                0x0000000000011c10       0x6a G:\╄    单片机\WCH\CH573\Projects\CH571_BLE_Hygrothermograph\LIB\libCH57xBLE.a(gapbondmgr.o)
                0x0000000000011c10                GAPBondMgr_Erase
 .text.GAPBondMgr_GetParameter
                0x0000000000011c7a       0xf4 G:\╄    单片机\WCH\CH573\Projects\CH571_BLE_Hygrothermograph\LIB\libCH57xBLE.a(gapbondmgr.o)
                0x0000000000011c7a                GAPBondMgr_GetParameter
 .text.GAPBondMgr_LinkTerm
                0x0000000000011d6e       0x9a G:\╄    单片机\WCH\CH573\Projects\CH571_BLE_Hygrothermograph\LIB\libCH57xBLE.a(gapbondmgr.o)
                0x0000000000011d6e                GAPBondMgr_LinkTerm
 .text.GAPBondMgr_ResolveAddr
                0x0000000000011e08       0xdc G:\╄    单片机\WCH\CH573\Projects\CH571_BLE_Hygrothermograph\LIB\libCH57xBLE.a(gapbondmgr.o)
                0x0000000000011e08                GAPBondMgr_ResolveAddr
 .text.GAPBondMgr_SetParameter
                0x0000000000011ee4      0x4a2 G:\╄    单片机\WCH\CH573\Projects\CH571_BLE_Hygrothermograph\LIB\libCH57xBLE.a(gapbondmgr.o)
                0x0000000000011ee4                GAPBondMgr_SetParameter
 .text.GAPBondMgr_SlaveReqSecurity
                0x0000000000012386       0x7a G:\╄    单片机\WCH\CH573\Projects\CH571_BLE_Hygrothermograph\LIB\libCH57xBLE.a(gapbondmgr.o)
                0x0000000000012386                GAPBondMgr_SlaveReqSecurity
 .text.GAPBondMgr_ServiceChangeInd
                0x0000000000012400       0x88 G:\╄    单片机\WCH\CH573\Projects\CH571_BLE_Hygrothermograph\LIB\libCH57xBLE.a(gapbondmgr.o)
                0x0000000000012400                GAPBondMgr_ServiceChangeInd
 .text.GAPBondMgr_UpdateCharCfg
                0x0000000000012488       0x76 G:\╄    单片机\WCH\CH573\Projects\CH571_BLE_Hygrothermograph\LIB\libCH57xBLE.a(gapbondmgr.o)
                0x0000000000012488                GAPBondMgr_UpdateCharCfg
 .text.GAPBondMgr_ProcessGAPMsg
                0x00000000000124fe      0x28e G:\╄    单片机\WCH\CH573\Projects\CH571_BLE_Hygrothermograph\LIB\libCH57xBLE.a(gapbondmgr.o)
                0x00000000000124fe                GAPBondMgr_ProcessGAPMsg
 .text.GAPBondMgr_Init
                0x000000000001278c       0x18 G:\╄    单片机\WCH\CH573\Projects\CH571_BLE_Hygrothermograph\LIB\libCH57xBLE.a(gapbondmgr.o)
                0x000000000001278c                GAPBondMgr_Init
 .text.GAPBondMgr_ProcessEvent
                0x00000000000127a4      0x1c0 G:\╄    单片机\WCH\CH573\Projects\CH571_BLE_Hygrothermograph\LIB\libCH57xBLE.a(gapbondmgr.o)
                0x00000000000127a4                GAPBondMgr_ProcessEvent
 .text.GAPRole_ParamInit
                0x0000000000012964       0xb0 G:\╄    单片机\WCH\CH573\Projects\CH571_BLE_Hygrothermograph\LIB\libCH57xBLE.a(role.o)
                0x0000000000012964                GAPRole_ParamInit
 .text.GAPRole_GetParameter
                0x0000000000012a14       0xdc G:\╄    单片机\WCH\CH573\Projects\CH571_BLE_Hygrothermograph\LIB\libCH57xBLE.a(role.o)
                0x0000000000012a14                GAPRole_GetParameter
 .text.GAPRole_SetParameter
                0x0000000000012af0      0x268 G:\╄    单片机\WCH\CH573\Projects\CH571_BLE_Hygrothermograph\LIB\libCH57xBLE.a(role.o)
                0x0000000000012af0                GAPRole_SetParameter
 .text.GAPRole_BroadcasterInit
                0x0000000000012d58       0x70 G:\╄    单片机\WCH\CH573\Projects\CH571_BLE_Hygrothermograph\LIB\libCH57xBLE.a(role.o)
                0x0000000000012d58                GAPRole_BroadcasterInit
 .text.tmos_memory_init
                0x0000000000012dc8       0x5a G:\╄    单片机\WCH\CH573\Projects\CH571_BLE_Hygrothermograph\LIB\libCH57xBLE.a(memory.o)
                0x0000000000012dc8                tmos_memory_init
 .text.tmos_bm_adjust_header
                0x0000000000012e22       0x34 G:\╄    单片机\WCH\CH573\Projects\CH571_BLE_Hygrothermograph\LIB\libCH57xBLE.a(memory.o)
                0x0000000000012e22                tmos_bm_adjust_header
 .text.ATT_BuildErrorRsp
                0x0000000000012e56       0x26 G:\╄    单片机\WCH\CH573\Projects\CH571_BLE_Hygrothermograph\LIB\libCH57xBLE.a(att.o)
                0x0000000000012e56                ATT_BuildErrorRsp
 .text.ATT_ParamInit
                0x0000000000012e7c        0xa G:\╄    单片机\WCH\CH573\Projects\CH571_BLE_Hygrothermograph\LIB\libCH57xBLE.a(att.o)
                0x0000000000012e7c                ATT_ParamInit
 .text.ATT_ConvertUUIDto128
                0x0000000000012e86       0x46 G:\╄    单片机\WCH\CH573\Projects\CH571_BLE_Hygrothermograph\LIB\libCH57xBLE.a(att.o)
                0x0000000000012e86                ATT_ConvertUUIDto128
 .text.ATT_CompareUUID
                0x0000000000012ecc       0x66 G:\╄    单片机\WCH\CH573\Projects\CH571_BLE_Hygrothermograph\LIB\libCH57xBLE.a(att.o)
                0x0000000000012ecc                ATT_CompareUUID
 .text.ATT_RegisterServer
                0x0000000000012f32        0x6 G:\╄    单片机\WCH\CH573\Projects\CH571_BLE_Hygrothermograph\LIB\libCH57xBLE.a(att.o)
                0x0000000000012f32                ATT_RegisterServer
 .text.ATT_ParsePacket
                0x0000000000012f38       0x94 G:\╄    单片机\WCH\CH573\Projects\CH571_BLE_Hygrothermograph\LIB\libCH57xBLE.a(att.o)
                0x0000000000012f38                ATT_ParsePacket
 .text.ATT_UpdateMTU
                0x0000000000012fcc       0x3c G:\╄    单片机\WCH\CH573\Projects\CH571_BLE_Hygrothermograph\LIB\libCH57xBLE.a(att.o)
                0x0000000000012fcc                ATT_UpdateMTU
 .text.ATT_GetMTU
                0x0000000000013008       0x1e G:\╄    单片机\WCH\CH573\Projects\CH571_BLE_Hygrothermograph\LIB\libCH57xBLE.a(att.o)
                0x0000000000013008                ATT_GetMTU
 .text.attSendMsg
                0x0000000000013026       0xb8 G:\╄    单片机\WCH\CH573\Projects\CH571_BLE_Hygrothermograph\LIB\libCH57xBLE.a(att.o)
                0x0000000000013026                attSendMsg
 .text.attSendRspMsg
                0x00000000000130de       0x48 G:\╄    单片机\WCH\CH573\Projects\CH571_BLE_Hygrothermograph\LIB\libCH57xBLE.a(att.o)
                0x00000000000130de                attSendRspMsg
 .text.ATT_ErrorRsp
                0x0000000000013126       0x12 G:\╄    单片机\WCH\CH573\Projects\CH571_BLE_Hygrothermograph\LIB\libCH57xBLE.a(att.o)
                0x0000000000013126                ATT_ErrorRsp
 .text.ATT_BuildExchangeMTURsp
                0x0000000000013138       0x16 G:\╄    单片机\WCH\CH573\Projects\CH571_BLE_Hygrothermograph\LIB\libCH57xBLE.a(att_server.o)
                0x0000000000013138                ATT_BuildExchangeMTURsp
 .text.ATT_BuildFindInfoRsp
                0x000000000001314e       0x24 G:\╄    单片机\WCH\CH573\Projects\CH571_BLE_Hygrothermograph\LIB\libCH57xBLE.a(att_server.o)
                0x000000000001314e                ATT_BuildFindInfoRsp
 .text.ATT_BuildFindByTypeValueRsp
                0x0000000000013172        0xc G:\╄    单片机\WCH\CH573\Projects\CH571_BLE_Hygrothermograph\LIB\libCH57xBLE.a(att_server.o)
                0x0000000000013172                ATT_BuildFindByTypeValueRsp
 .text.ATT_BuildReadByTypeRsp
                0x000000000001317e       0x1c G:\╄    单片机\WCH\CH573\Projects\CH571_BLE_Hygrothermograph\LIB\libCH57xBLE.a(att_server.o)
                0x000000000001317e                ATT_BuildReadByTypeRsp
 .text.ATT_BuildReadRsp
                0x000000000001319a        0x6 G:\╄    单片机\WCH\CH573\Projects\CH571_BLE_Hygrothermograph\LIB\libCH57xBLE.a(att_server.o)
                0x000000000001319a                ATT_BuildReadRsp
 .text.ATT_BuildReadBlobRsp
                0x00000000000131a0        0x6 G:\╄    单片机\WCH\CH573\Projects\CH571_BLE_Hygrothermograph\LIB\libCH57xBLE.a(att_server.o)
                0x00000000000131a0                ATT_BuildReadBlobRsp
 .text.ATT_BuildReadMultiRsp
                0x00000000000131a6        0x6 G:\╄    单片机\WCH\CH573\Projects\CH571_BLE_Hygrothermograph\LIB\libCH57xBLE.a(att_server.o)
                0x00000000000131a6                ATT_BuildReadMultiRsp
 .text.ATT_BuildReadByGrpTypeRsp
                0x00000000000131ac       0x1c G:\╄    单片机\WCH\CH573\Projects\CH571_BLE_Hygrothermograph\LIB\libCH57xBLE.a(att_server.o)
                0x00000000000131ac                ATT_BuildReadByGrpTypeRsp
 .text.ATT_BuildPrepareWriteRsp
                0x00000000000131c8       0x30 G:\╄    单片机\WCH\CH573\Projects\CH571_BLE_Hygrothermograph\LIB\libCH57xBLE.a(att_server.o)
                0x00000000000131c8                ATT_BuildPrepareWriteRsp
 .text.ATT_BuildHandleValueInd
                0x00000000000131f8       0x1e G:\╄    单片机\WCH\CH573\Projects\CH571_BLE_Hygrothermograph\LIB\libCH57xBLE.a(att_server.o)
                0x00000000000131f8                ATT_BuildHandleValueInd
 .text.ATT_ParseExchangeMTUReq
                0x0000000000013216       0x1c G:\╄    单片机\WCH\CH573\Projects\CH571_BLE_Hygrothermograph\LIB\libCH57xBLE.a(att_server.o)
                0x0000000000013216                ATT_ParseExchangeMTUReq
 .text.ATT_ExchangeMTURsp
                0x0000000000013232       0x20 G:\╄    单片机\WCH\CH573\Projects\CH571_BLE_Hygrothermograph\LIB\libCH57xBLE.a(att_server.o)
                0x0000000000013232                ATT_ExchangeMTURsp
 .text.ATT_ParseFindInfoReq
                0x0000000000013252       0x2a G:\╄    单片机\WCH\CH573\Projects\CH571_BLE_Hygrothermograph\LIB\libCH57xBLE.a(att_server.o)
                0x0000000000013252                ATT_ParseFindInfoReq
 .text.ATT_FindInfoRsp
                0x000000000001327c       0x52 G:\╄    单片机\WCH\CH573\Projects\CH571_BLE_Hygrothermograph\LIB\libCH57xBLE.a(att_server.o)
                0x000000000001327c                ATT_FindInfoRsp
 .text.ATT_ParseFindByTypeValueReq
                0x00000000000132ce       0x78 G:\╄    单片机\WCH\CH573\Projects\CH571_BLE_Hygrothermograph\LIB\libCH57xBLE.a(att_server.o)
                0x00000000000132ce                ATT_ParseFindByTypeValueReq
 .text.ATT_FindByTypeValueRsp
                0x0000000000013346       0x42 G:\╄    单片机\WCH\CH573\Projects\CH571_BLE_Hygrothermograph\LIB\libCH57xBLE.a(att_server.o)
                0x0000000000013346                ATT_FindByTypeValueRsp
 .text.ATT_ParseReadByTypeReq
                0x0000000000013388       0x5a G:\╄    单片机\WCH\CH573\Projects\CH571_BLE_Hygrothermograph\LIB\libCH57xBLE.a(att_server.o)
                0x0000000000013388                ATT_ParseReadByTypeReq
 .text.ATT_ReadByTypeRsp
                0x00000000000133e2       0x42 G:\╄    单片机\WCH\CH573\Projects\CH571_BLE_Hygrothermograph\LIB\libCH57xBLE.a(att_server.o)
                0x00000000000133e2                ATT_ReadByTypeRsp
 .text.ATT_ParseReadReq
                0x0000000000013424       0x1c G:\╄    单片机\WCH\CH573\Projects\CH571_BLE_Hygrothermograph\LIB\libCH57xBLE.a(att_server.o)
                0x0000000000013424                ATT_ParseReadReq
 .text.ATT_ReadRsp
                0x0000000000013440       0x32 G:\╄    单片机\WCH\CH573\Projects\CH571_BLE_Hygrothermograph\LIB\libCH57xBLE.a(att_server.o)
                0x0000000000013440                ATT_ReadRsp
 .text.ATT_ParseReadBlobReq
                0x0000000000013472       0x2a G:\╄    单片机\WCH\CH573\Projects\CH571_BLE_Hygrothermograph\LIB\libCH57xBLE.a(att_server.o)
                0x0000000000013472                ATT_ParseReadBlobReq
 .text.ATT_ReadBlobRsp
                0x000000000001349c       0x30 G:\╄    单片机\WCH\CH573\Projects\CH571_BLE_Hygrothermograph\LIB\libCH57xBLE.a(att_server.o)
                0x000000000001349c                ATT_ReadBlobRsp
 .text.ATT_ParseReadMultiReq
                0x00000000000134cc       0x1a G:\╄    单片机\WCH\CH573\Projects\CH571_BLE_Hygrothermograph\LIB\libCH57xBLE.a(att_server.o)
                0x00000000000134cc                ATT_ParseReadMultiReq
 .text.ATT_ReadMultiRsp
                0x00000000000134e6       0x38 G:\╄    单片机\WCH\CH573\Projects\CH571_BLE_Hygrothermograph\LIB\libCH57xBLE.a(att_server.o)
                0x00000000000134e6                ATT_ReadMultiRsp
 .text.ATT_ReadByGrpTypeRsp
                0x000000000001351e       0x42 G:\╄    单片机\WCH\CH573\Projects\CH571_BLE_Hygrothermograph\LIB\libCH57xBLE.a(att_server.o)
                0x000000000001351e                ATT_ReadByGrpTypeRsp
 .text.ATT_ParseWriteReq
                0x0000000000013560       0x3e G:\╄    单片机\WCH\CH573\Projects\CH571_BLE_Hygrothermograph\LIB\libCH57xBLE.a(att_server.o)
                0x0000000000013560                ATT_ParseWriteReq
 .text.ATT_WriteRsp
                0x000000000001359e        0xc G:\╄    单片机\WCH\CH573\Projects\CH571_BLE_Hygrothermograph\LIB\libCH57xBLE.a(att_server.o)
                0x000000000001359e                ATT_WriteRsp
 .text.ATT_ParsePrepareWriteReq
                0x00000000000135aa       0x42 G:\╄    单片机\WCH\CH573\Projects\CH571_BLE_Hygrothermograph\LIB\libCH57xBLE.a(att_server.o)
                0x00000000000135aa                ATT_ParsePrepareWriteReq
 .text.ATT_PrepareWriteRsp
                0x00000000000135ec       0x30 G:\╄    单片机\WCH\CH573\Projects\CH571_BLE_Hygrothermograph\LIB\libCH57xBLE.a(att_server.o)
                0x00000000000135ec                ATT_PrepareWriteRsp
 .text.ATT_ParseExecuteWriteReq
                0x000000000001361c       0x14 G:\╄    单片机\WCH\CH573\Projects\CH571_BLE_Hygrothermograph\LIB\libCH57xBLE.a(att_server.o)
                0x000000000001361c                ATT_ParseExecuteWriteReq
 .text.ATT_ExecuteWriteRsp
                0x0000000000013630        0xc G:\╄    单片机\WCH\CH573\Projects\CH571_BLE_Hygrothermograph\LIB\libCH57xBLE.a(att_server.o)
                0x0000000000013630                ATT_ExecuteWriteRsp
 .text.ATT_HandleValueInd
                0x000000000001363c       0x32 G:\╄    单片机\WCH\CH573\Projects\CH571_BLE_Hygrothermograph\LIB\libCH57xBLE.a(att_server.o)
                0x000000000001363c                ATT_HandleValueInd
 .text.ggs_SetAttrWPermit
                0x000000000001366e       0x68 G:\╄    单片机\WCH\CH573\Projects\CH571_BLE_Hygrothermograph\LIB\libCH57xBLE.a(gapgattserver.o)
 .text.ggs_ReadAttrCB
                0x00000000000136d6      0x152 G:\╄    单片机\WCH\CH573\Projects\CH571_BLE_Hygrothermograph\LIB\libCH57xBLE.a(gapgattserver.o)
 .text.ggs_WriteAttrCB
                0x0000000000013828      0x154 G:\╄    单片机\WCH\CH573\Projects\CH571_BLE_Hygrothermograph\LIB\libCH57xBLE.a(gapgattserver.o)
 .text.GGS_ParamInit
                0x000000000001397c      0x23a G:\╄    单片机\WCH\CH573\Projects\CH571_BLE_Hygrothermograph\LIB\libCH57xBLE.a(gapgattserver.o)
                0x000000000001397c                GGS_ParamInit
 .text.GGS_SetParameter
                0x0000000000013bb6       0xde G:\╄    单片机\WCH\CH573\Projects\CH571_BLE_Hygrothermograph\LIB\libCH57xBLE.a(gapgattserver.o)
                0x0000000000013bb6                GGS_SetParameter
 .text.GAP_DeviceInit
                0x0000000000013c94       0xd8 G:\╄    单片机\WCH\CH573\Projects\CH571_BLE_Hygrothermograph\LIB\libCH57xBLE.a(gapgattserver.o)
                0x0000000000013c94                GAP_DeviceInit
 .text.gattGetPayload
                0x0000000000013d6c       0x7e G:\╄    单片机\WCH\CH573\Projects\CH571_BLE_Hygrothermograph\LIB\libCH57xBLE.a(gatt.o)
                0x0000000000013d6c                gattGetPayload
 .text.gattNotifyEvent
                0x0000000000013dea       0x80 G:\╄    单片机\WCH\CH573\Projects\CH571_BLE_Hygrothermograph\LIB\libCH57xBLE.a(gatt.o)
                0x0000000000013dea                gattNotifyEvent
 .text.gattSendFlowCtrlEvt
                0x0000000000013e6a       0x4a G:\╄    单片机\WCH\CH573\Projects\CH571_BLE_Hygrothermograph\LIB\libCH57xBLE.a(gatt.o)
                0x0000000000013e6a                gattSendFlowCtrlEvt
 .text.gattStartTimer
                0x0000000000013eb4        0xc G:\╄    单片机\WCH\CH573\Projects\CH571_BLE_Hygrothermograph\LIB\libCH57xBLE.a(gatt.o)
                0x0000000000013eb4                gattStartTimer
 .text.gattStopTimer
                0x0000000000013ec0       0x32 G:\╄    单片机\WCH\CH573\Projects\CH571_BLE_Hygrothermograph\LIB\libCH57xBLE.a(gatt.o)
                0x0000000000013ec0                gattStopTimer
 .text.GATT_AppCompletedMsg
                0x0000000000013ef2       0x30 G:\╄    单片机\WCH\CH573\Projects\CH571_BLE_Hygrothermograph\LIB\libCH57xBLE.a(gatt.o)
                0x0000000000013ef2                GATT_AppCompletedMsg
 .text.GATT_NotifyEvent
                0x0000000000013f22       0x4e G:\╄    单片机\WCH\CH573\Projects\CH571_BLE_Hygrothermograph\LIB\libCH57xBLE.a(gatt.o)
                0x0000000000013f22                GATT_NotifyEvent
 .text.gattRegisterServer
                0x0000000000013f70        0x6 G:\╄    单片机\WCH\CH573\Projects\CH571_BLE_Hygrothermograph\LIB\libCH57xBLE.a(gatt.o)
                0x0000000000013f70                gattRegisterServer
 .text.GATT_UpdateMTU
                0x0000000000013f76       0x5c G:\╄    单片机\WCH\CH573\Projects\CH571_BLE_Hygrothermograph\LIB\libCH57xBLE.a(gatt.o)
                0x0000000000013f76                GATT_UpdateMTU
 .text.GATT_bm_alloc
                0x0000000000013fd2       0xe8 G:\╄    单片机\WCH\CH573\Projects\CH571_BLE_Hygrothermograph\LIB\libCH57xBLE.a(gatt.o)
                0x0000000000013fd2                GATT_bm_alloc
 .text.GATT_ServiceChangedInd
                0x00000000000140ba       0x94 G:\╄    单片机\WCH\CH573\Projects\CH571_BLE_Hygrothermograph\LIB\libCH57xBLE.a(gatt.o)
                0x00000000000140ba                GATT_ServiceChangedInd
 .text.GATT_bm_free
                0x000000000001414e       0x1c G:\╄    单片机\WCH\CH573\Projects\CH571_BLE_Hygrothermograph\LIB\libCH57xBLE.a(gatt.o)
                0x000000000001414e                GATT_bm_free
 .text.GATT_Init
                0x000000000001416a       0x30 G:\╄    单片机\WCH\CH573\Projects\CH571_BLE_Hygrothermograph\LIB\libCH57xBLE.a(gatt.o)
                0x000000000001416a                GATT_Init
 .text.GATT_ProcessEvent
                0x000000000001419a      0x136 G:\╄    单片机\WCH\CH573\Projects\CH571_BLE_Hygrothermograph\LIB\libCH57xBLE.a(gatt.o)
                0x000000000001419a                GATT_ProcessEvent
 .text.ll_get_prime_number
                0x00000000000142d0       0x3c G:\╄    单片机\WCH\CH573\Projects\CH571_BLE_Hygrothermograph\LIB\libCH57xBLE.a(ll.o)
                0x00000000000142d0                ll_get_prime_number
 .text.LL_ProcessEvent
                0x000000000001430c      0x130 G:\╄    单片机\WCH\CH573\Projects\CH571_BLE_Hygrothermograph\LIB\libCH57xBLE.a(ll.o)
                0x000000000001430c                LL_ProcessEvent
 .text.LL_Init  0x000000000001443c       0xb2 G:\╄    单片机\WCH\CH573\Projects\CH571_BLE_Hygrothermograph\LIB\libCH57xBLE.a(ll.o)
                0x000000000001443c                LL_Init
 .text.llAdvertiseSet
                0x00000000000144ee      0x152 G:\╄    单片机\WCH\CH573\Projects\CH571_BLE_Hygrothermograph\LIB\libCH57xBLE.a(ll_advertise.o)
                0x00000000000144ee                llAdvertiseSet
 .text.llAdvertiseCreateCore
                0x0000000000014640       0x78 G:\╄    单片机\WCH\CH573\Projects\CH571_BLE_Hygrothermograph\LIB\libCH57xBLE.a(ll_advertise.o)
 .text.ll_advertise_tx
                0x00000000000146b8      0x280 G:\╄    单片机\WCH\CH573\Projects\CH571_BLE_Hygrothermograph\LIB\libCH57xBLE.a(ll_advertise.o)
 .text.llAdvTraverseallChannel
                0x0000000000014938       0x88 G:\╄    单片机\WCH\CH573\Projects\CH571_BLE_Hygrothermograph\LIB\libCH57xBLE.a(ll_advertise.o)
                0x0000000000014938                llAdvTraverseallChannel
 .text.llAdvertiseStart
                0x00000000000149c0       0xde G:\╄    单片机\WCH\CH573\Projects\CH571_BLE_Hygrothermograph\LIB\libCH57xBLE.a(ll_advertise.o)
                0x00000000000149c0                llAdvertiseStart
 .text.ll_advertise_filter
                0x0000000000014a9e      0x156 G:\╄    单片机\WCH\CH573\Projects\CH571_BLE_Hygrothermograph\LIB\libCH57xBLE.a(ll_advertise.o)
                0x0000000000014a9e                ll_advertise_filter
 .text.LL_AdvertiseToStandby
                0x0000000000014bf4       0x7e G:\╄    单片机\WCH\CH573\Projects\CH571_BLE_Hygrothermograph\LIB\libCH57xBLE.a(ll_advertise.o)
                0x0000000000014bf4                LL_AdvertiseToStandby
 .text.ll_advertise_process
                0x0000000000014c72      0x422 G:\╄    单片机\WCH\CH573\Projects\CH571_BLE_Hygrothermograph\LIB\libCH57xBLE.a(ll_advertise.o)
                0x0000000000014c72                ll_advertise_process
 .text.LL_AdvertiseDirectTimeout
                0x0000000000015094       0x1a G:\╄    单片机\WCH\CH573\Projects\CH571_BLE_Hygrothermograph\LIB\libCH57xBLE.a(ll_advertise.o)
                0x0000000000015094                LL_AdvertiseDirectTimeout
 .text.LL_AdvertiseEnalbe
                0x00000000000150ae       0x46 G:\╄    单片机\WCH\CH573\Projects\CH571_BLE_Hygrothermograph\LIB\libCH57xBLE.a(ll_advertise.o)
                0x00000000000150ae                LL_AdvertiseEnalbe
 .text.LL_InitiateToStandby
                0x00000000000150f4       0x94 G:\╄    单片机\WCH\CH573\Projects\CH571_BLE_Hygrothermograph\LIB\libCH57xBLE.a(ll_initiate.o)
                0x00000000000150f4                LL_InitiateToStandby
 .text.ll_resolvinglist_checkRPA
                0x0000000000015188       0x6c G:\╄    单片机\WCH\CH573\Projects\CH571_BLE_Hygrothermograph\LIB\libCH57xBLE.a(ll_resolvinglist.o)
                0x0000000000015188                ll_resolvinglist_checkRPA
 .text.ll_resolvinglist_renew_rpa
                0x00000000000151f4       0x4a G:\╄    单片机\WCH\CH573\Projects\CH571_BLE_Hygrothermograph\LIB\libCH57xBLE.a(ll_resolvinglist.o)
                0x00000000000151f4                ll_resolvinglist_renew_rpa
 .text.ll_resolvinglist_renew_set
                0x000000000001523e       0x12 G:\╄    单片机\WCH\CH573\Projects\CH571_BLE_Hygrothermograph\LIB\libCH57xBLE.a(ll_resolvinglist.o)
                0x000000000001523e                ll_resolvinglist_renew_set
 .text.ll_resolvinglist_timeout_renew_rpa
                0x0000000000015250       0x58 G:\╄    单片机\WCH\CH573\Projects\CH571_BLE_Hygrothermograph\LIB\libCH57xBLE.a(ll_resolvinglist.o)
                0x0000000000015250                ll_resolvinglist_timeout_renew_rpa
 .text.LL_ResolvinglistAdd
                0x00000000000152a8      0x146 G:\╄    单片机\WCH\CH573\Projects\CH571_BLE_Hygrothermograph\LIB\libCH57xBLE.a(ll_resolvinglist.o)
                0x00000000000152a8                LL_ResolvinglistAdd
 .text.LL_ResolvinglistClearall
                0x00000000000153ee       0x52 G:\╄    单片机\WCH\CH573\Projects\CH571_BLE_Hygrothermograph\LIB\libCH57xBLE.a(ll_resolvinglist.o)
                0x00000000000153ee                LL_ResolvinglistClearall
 .text.LL_ResolvinglistPeerIdentifyAddressGetIrk
                0x0000000000015440       0x52 G:\╄    单片机\WCH\CH573\Projects\CH571_BLE_Hygrothermograph\LIB\libCH57xBLE.a(ll_resolvinglist.o)
                0x0000000000015440                LL_ResolvinglistPeerIdentifyAddressGetIrk
 .text.LL_ResolvinglistPeerRpaAddressGetIrk
                0x0000000000015492       0x3c G:\╄    单片机\WCH\CH573\Projects\CH571_BLE_Hygrothermograph\LIB\libCH57xBLE.a(ll_resolvinglist.o)
                0x0000000000015492                LL_ResolvinglistPeerRpaAddressGetIrk
 .text.LL_ResolvinglistInit
                0x00000000000154ce       0x12 G:\╄    单片机\WCH\CH573\Projects\CH571_BLE_Hygrothermograph\LIB\libCH57xBLE.a(ll_resolvinglist.o)
                0x00000000000154ce                LL_ResolvinglistInit
 .text.LL_AddrGenerateResolvableAddress
                0x00000000000154e0       0x9c G:\╄    单片机\WCH\CH573\Projects\CH571_BLE_Hygrothermograph\LIB\libCH57xBLE.a(ll_address.o)
                0x00000000000154e0                LL_AddrGenerateResolvableAddress
 .text.LL_AddrInit
                0x000000000001557c      0x12e G:\╄    单片机\WCH\CH573\Projects\CH571_BLE_Hygrothermograph\LIB\libCH57xBLE.a(ll_address.o)
                0x000000000001557c                LL_AddrInit
 .text.__muldf3
                0x00000000000156aa      0x4b8 e:/mounriver/mounriver_studio/toolchain/risc-v embedded gcc/bin/../lib/gcc/riscv-none-embed/8.2.0/rv32imac/ilp32\libgcc.a(muldf3.o)
                0x00000000000156aa                __muldf3
 .text.__floatsidf
                0x0000000000015b62       0x72 e:/mounriver/mounriver_studio/toolchain/risc-v embedded gcc/bin/../lib/gcc/riscv-none-embed/8.2.0/rv32imac/ilp32\libgcc.a(floatsidf.o)
                0x0000000000015b62                __floatsidf
 .text.__divsf3
                0x0000000000015bd4      0x2ae e:/mounriver/mounriver_studio/toolchain/risc-v embedded gcc/bin/../lib/gcc/riscv-none-embed/8.2.0/rv32imac/ilp32\libgcc.a(divsf3.o)
                0x0000000000015bd4                __divsf3
 .text.__mulsf3
                0x0000000000015e82      0x290 e:/mounriver/mounriver_studio/toolchain/risc-v embedded gcc/bin/../lib/gcc/riscv-none-embed/8.2.0/rv32imac/ilp32\libgcc.a(mulsf3.o)
                0x0000000000015e82                __mulsf3
 .text.__fixsfsi
                0x0000000000016112       0x62 e:/mounriver/mounriver_studio/toolchain/risc-v embedded gcc/bin/../lib/gcc/riscv-none-embed/8.2.0/rv32imac/ilp32\libgcc.a(fixsfsi.o)
                0x0000000000016112                __fixsfsi
 .text.__fixunssfsi
                0x0000000000016174       0x56 e:/mounriver/mounriver_studio/toolchain/risc-v embedded gcc/bin/../lib/gcc/riscv-none-embed/8.2.0/rv32imac/ilp32\libgcc.a(fixunssfsi.o)
                0x0000000000016174                __fixunssfsi
 .text.__floatsisf
                0x00000000000161ca       0xc6 e:/mounriver/mounriver_studio/toolchain/risc-v embedded gcc/bin/../lib/gcc/riscv-none-embed/8.2.0/rv32imac/ilp32\libgcc.a(floatsisf.o)
                0x00000000000161ca                __floatsisf
 .text.__truncdfsf2
                0x0000000000016290      0x16a e:/mounriver/mounriver_studio/toolchain/risc-v embedded gcc/bin/../lib/gcc/riscv-none-embed/8.2.0/rv32imac/ilp32\libgcc.a(truncdfsf2.o)
                0x0000000000016290                __truncdfsf2
 .text.__clzsi2
                0x00000000000163fa       0x76 e:/mounriver/mounriver_studio/toolchain/risc-v embedded gcc/bin/../lib/gcc/riscv-none-embed/8.2.0/rv32imac/ilp32\libgcc.a(_clzsi2.o)
                0x00000000000163fa                __clzsi2
 .text.memcpy   0x0000000000016470       0xb6 e:/mounriver/mounriver_studio/toolchain/risc-v embedded gcc/bin/../lib/gcc/riscv-none-embed/8.2.0/../../../../riscv-none-embed/lib/rv32imac/ilp32\libg_nano.a(lib_a-memcpy.o)
                0x0000000000016470                memcpy
 *(.rodata)
 *fill*         0x0000000000016526        0x2 
 .rodata        0x0000000000016528       0x28 ./StdPeriphDriver/CH57x_gpio.o
 *(.rodata*)
 .rodata.str1.4
                0x0000000000016550       0x14 ./HAL/MCU.o
                                         0x13 (size before relaxing)
 .rodata.serverReqTbl
                0x0000000000016564       0x60 G:\╄    单片机\WCH\CH573\Projects\CH571_BLE_Hygrothermograph\LIB\libCH57xBLE.a(gattservapp.o)
                0x0000000000016564                serverReqTbl
 .rodata.smpInitiatorProcessIncoming
                0x00000000000165c4       0x28 G:\╄    单片机\WCH\CH573\Projects\CH571_BLE_Hygrothermograph\LIB\libCH57xBLE.a(sm.o)
 .rodata.smProcessDataMsg
                0x00000000000165ec       0x2c G:\╄    单片机\WCH\CH573\Projects\CH571_BLE_Hygrothermograph\LIB\libCH57xBLE.a(sm.o)
 .rodata.smpResponderProcessIncoming
                0x0000000000016618       0x28 G:\╄    单片机\WCH\CH573\Projects\CH571_BLE_Hygrothermograph\LIB\libCH57xBLE.a(sm.o)
 .rodata.IOCapMatrix
                0x0000000000016640       0x19 G:\╄    单片机\WCH\CH573\Projects\CH571_BLE_Hygrothermograph\LIB\libCH57xBLE.a(sm.o)
                0x0000000000016640                IOCapMatrix
 *fill*         0x0000000000016659        0x3 
 .rodata.const_Rb
                0x000000000001665c       0x10 G:\╄    单片机\WCH\CH573\Projects\CH571_BLE_Hygrothermograph\LIB\libCH57xBLE.a(sm.o)
                0x000000000001665c                const_Rb
 .rodata.VER_LIB
                0x000000000001666c       0x14 G:\╄    单片机\WCH\CH573\Projects\CH571_BLE_Hygrothermograph\LIB\libCH57xBLE.a(ip.o)
                0x000000000001666c                VER_LIB
 .rodata.GAPBondMgr_GetParameter
                0x0000000000016680       0x80 G:\╄    单片机\WCH\CH573\Projects\CH571_BLE_Hygrothermograph\LIB\libCH57xBLE.a(gapbondmgr.o)
 .rodata.GAPBondMgr_SetParameter
                0x0000000000016700       0x84 G:\╄    单片机\WCH\CH573\Projects\CH571_BLE_Hygrothermograph\LIB\libCH57xBLE.a(gapbondmgr.o)
 .rodata.GAPBondMgr_ProcessGAPMsg
                0x0000000000016784       0x28 G:\╄    单片机\WCH\CH573\Projects\CH571_BLE_Hygrothermograph\LIB\libCH57xBLE.a(gapbondmgr.o)
 .rodata.GAPRole_GetParameter
                0x00000000000167ac       0x4c G:\╄    单片机\WCH\CH573\Projects\CH571_BLE_Hygrothermograph\LIB\libCH57xBLE.a(role.o)
 .rodata.GAPRole_SetParameter
                0x00000000000167f8       0x48 G:\╄    单片机\WCH\CH573\Projects\CH571_BLE_Hygrothermograph\LIB\libCH57xBLE.a(role.o)
 .rodata.btBaseUUID
                0x0000000000016840       0x10 G:\╄    单片机\WCH\CH573\Projects\CH571_BLE_Hygrothermograph\LIB\libCH57xBLE.a(att.o)
                0x0000000000016840                btBaseUUID
 .rodata.GGS_SetParameter
                0x0000000000016850       0x28 G:\╄    单片机\WCH\CH573\Projects\CH571_BLE_Hygrothermograph\LIB\libCH57xBLE.a(gapgattserver.o)
 .rodata.GAP_DeviceInit
                0x0000000000016878       0x30 G:\╄    单片机\WCH\CH573\Projects\CH571_BLE_Hygrothermograph\LIB\libCH57xBLE.a(gapgattserver.o)
 .rodata.PrimeNumber
                0x00000000000168a8       0x17 G:\╄    单片机\WCH\CH573\Projects\CH571_BLE_Hygrothermograph\LIB\libCH57xBLE.a(ll.o)
                0x00000000000168a8                PrimeNumber
 *fill*         0x00000000000168bf        0x1 
 .rodata.__muldf3
                0x00000000000168c0       0x40 e:/mounriver/mounriver_studio/toolchain/risc-v embedded gcc/bin/../lib/gcc/riscv-none-embed/8.2.0/rv32imac/ilp32\libgcc.a(muldf3.o)
 .rodata.__divsf3
                0x0000000000016900       0x80 e:/mounriver/mounriver_studio/toolchain/risc-v embedded gcc/bin/../lib/gcc/riscv-none-embed/8.2.0/rv32imac/ilp32\libgcc.a(divsf3.o)
 .rodata.__mulsf3
                0x0000000000016980       0x40 e:/mounriver/mounriver_studio/toolchain/risc-v embedded gcc/bin/../lib/gcc/riscv-none-embed/8.2.0/rv32imac/ilp32\libgcc.a(mulsf3.o)
 .rodata.__clz_tab
                0x00000000000169c0      0x100 e:/mounriver/mounriver_studio/toolchain/risc-v embedded gcc/bin/../lib/gcc/riscv-none-embed/8.2.0/rv32imac/ilp32\libgcc.a(_clz.o)
                0x00000000000169c0                __clz_tab
 *(.sdata2.*)
 .sdata2.appearanceUUID
                0x0000000000016ac0        0x2 G:\╄    单片机\WCH\CH573\Projects\CH571_BLE_Hygrothermograph\LIB\libCH57xBLE.a(gatt_uuid.o)
                0x0000000000016ac0                appearanceUUID
 *fill*         0x0000000000016ac2        0x2 
 .sdata2.centAddrResUUID
                0x0000000000016ac4        0x2 G:\╄    单片机\WCH\CH573\Projects\CH571_BLE_Hygrothermograph\LIB\libCH57xBLE.a(gatt_uuid.o)
                0x0000000000016ac4                centAddrResUUID
 *fill*         0x0000000000016ac6        0x2 
 .sdata2.characterUUID
                0x0000000000016ac8        0x2 G:\╄    单片机\WCH\CH573\Projects\CH571_BLE_Hygrothermograph\LIB\libCH57xBLE.a(gatt_uuid.o)
                0x0000000000016ac8                characterUUID
 *fill*         0x0000000000016aca        0x2 
 .sdata2.clientCharCfgUUID
                0x0000000000016acc        0x2 G:\╄    单片机\WCH\CH573\Projects\CH571_BLE_Hygrothermograph\LIB\libCH57xBLE.a(gatt_uuid.o)
                0x0000000000016acc                clientCharCfgUUID
 *fill*         0x0000000000016ace        0x2 
 .sdata2.deviceNameUUID
                0x0000000000016ad0        0x2 G:\╄    单片机\WCH\CH573\Projects\CH571_BLE_Hygrothermograph\LIB\libCH57xBLE.a(gatt_uuid.o)
                0x0000000000016ad0                deviceNameUUID
 *fill*         0x0000000000016ad2        0x2 
 .sdata2.gapServiceUUID
                0x0000000000016ad4        0x2 G:\╄    单片机\WCH\CH573\Projects\CH571_BLE_Hygrothermograph\LIB\libCH57xBLE.a(gatt_uuid.o)
                0x0000000000016ad4                gapServiceUUID
 *fill*         0x0000000000016ad6        0x2 
 .sdata2.gattServiceUUID
                0x0000000000016ad8        0x2 G:\╄    单片机\WCH\CH573\Projects\CH571_BLE_Hygrothermograph\LIB\libCH57xBLE.a(gatt_uuid.o)
                0x0000000000016ad8                gattServiceUUID
 *fill*         0x0000000000016ada        0x2 
 .sdata2.periConnParamUUID
                0x0000000000016adc        0x2 G:\╄    单片机\WCH\CH573\Projects\CH571_BLE_Hygrothermograph\LIB\libCH57xBLE.a(gatt_uuid.o)
                0x0000000000016adc                periConnParamUUID
 *fill*         0x0000000000016ade        0x2 
 .sdata2.primaryServiceUUID
                0x0000000000016ae0        0x2 G:\╄    单片机\WCH\CH573\Projects\CH571_BLE_Hygrothermograph\LIB\libCH57xBLE.a(gatt_uuid.o)
                0x0000000000016ae0                primaryServiceUUID
 *fill*         0x0000000000016ae2        0x2 
 .sdata2.secondaryServiceUUID
                0x0000000000016ae4        0x2 G:\╄    单片机\WCH\CH573\Projects\CH571_BLE_Hygrothermograph\LIB\libCH57xBLE.a(gatt_uuid.o)
                0x0000000000016ae4                secondaryServiceUUID
 *fill*         0x0000000000016ae6        0x2 
 .sdata2.serviceChangedUUID
                0x0000000000016ae8        0x2 G:\╄    单片机\WCH\CH573\Projects\CH571_BLE_Hygrothermograph\LIB\libCH57xBLE.a(gatt_uuid.o)
                0x0000000000016ae8                serviceChangedUUID
 *fill*         0x0000000000016aea        0x2 
 .sdata2.gapService
                0x0000000000016aec        0x8 G:\╄    单片机\WCH\CH573\Projects\CH571_BLE_Hygrothermograph\LIB\libCH57xBLE.a(gapgattserver.o)
 *(.glue_7)
 *(.glue_7t)
 *(.gnu.linkonce.t.*)
                0x0000000000016af4                . = ALIGN (0x4)

.rela.dyn       0x0000000000016af4        0x0
 .rela.init     0x0000000000016af4        0x0 ./StdPeriphDriver/CH57x_adc.o
 .rela.vector   0x0000000000016af4        0x0 ./StdPeriphDriver/CH57x_adc.o
 .rela.handle_reset
                0x0000000000016af4        0x0 ./StdPeriphDriver/CH57x_adc.o

.fini           0x0000000000016af4        0x0
 *(SORT_NONE(.fini))
                0x0000000000016af4                . = ALIGN (0x4)
                [!provide]                        PROVIDE (_etext = .)
                [!provide]                        PROVIDE (_eitcm = .)

.preinit_array  0x0000000000016af4        0x0
                [!provide]                        PROVIDE (__preinit_array_start = .)
 *(.preinit_array)
                [!provide]                        PROVIDE (__preinit_array_end = .)

.init_array     0x0000000000016af4        0x0
                [!provide]                        PROVIDE (__init_array_start = .)
 *(SORT_BY_INIT_PRIORITY(.init_array.*) SORT_BY_INIT_PRIORITY(.ctors.*))
 *(.init_array EXCLUDE_FILE(*crtend?.o *crtend.o *crtbegin?.o *crtbegin.o) .ctors)
                [!provide]                        PROVIDE (__init_array_end = .)

.fini_array     0x0000000000016af4        0x0
                [!provide]                        PROVIDE (__fini_array_start = .)
 *(SORT_BY_INIT_PRIORITY(.fini_array.*) SORT_BY_INIT_PRIORITY(.dtors.*))
 *(.fini_array EXCLUDE_FILE(*crtend?.o *crtend.o *crtbegin?.o *crtbegin.o) .dtors)
                [!provide]                        PROVIDE (__fini_array_end = .)

.ctors
 *crtbegin.o(.ctors)
 *crtbegin?.o(.ctors)
 *(EXCLUDE_FILE(*crtend?.o *crtend.o) .ctors)
 *(SORT_BY_NAME(.ctors.*))
 *(.ctors)

.dtors
 *crtbegin.o(.dtors)
 *crtbegin?.o(.dtors)
 *(EXCLUDE_FILE(*crtend?.o *crtend.o) .dtors)
 *(SORT_BY_NAME(.dtors.*))
 *(.dtors)

.dalign         0x0000000020004b18        0x0 load address 0x0000000000016af4
                0x0000000020004b18                . = (ORIGIN (RAM) + MAX (0x800, SIZEOF (.highcode)))

.dlalign        0x0000000000016af4        0x0
                0x0000000000016af4                . = ALIGN (0x4)
                0x0000000000016af4                PROVIDE (_data_lma = .)

.data           0x0000000020004b18      0x18c load address 0x0000000000016af4
                0x0000000020004b18                . = ALIGN (0x4)
                0x0000000020004b18                PROVIDE (_data_vma = .)
 *(.gnu.linkonce.r.*)
 *(.data .data.*)
 .data          0x0000000020004b18       0x18 ./APP/broadcaster.o
 .data.gattAttrTbl
                0x0000000020004b30       0x40 G:\╄    单片机\WCH\CH573\Projects\CH571_BLE_Hygrothermograph\LIB\libCH57xBLE.a(gattservapp.o)
 .data.gattServiceCBs
                0x0000000020004b70        0xc G:\╄    单片机\WCH\CH573\Projects\CH571_BLE_Hygrothermograph\LIB\libCH57xBLE.a(gattservapp.o)
 .data.smInitiatorCBs
                0x0000000020004b7c        0xc G:\╄    单片机\WCH\CH573\Projects\CH571_BLE_Hygrothermograph\LIB\libCH57xBLE.a(sm.o)
                0x0000000020004b7c                smInitiatorCBs
 .data.smResponderCBs
                0x0000000020004b88        0xc G:\╄    单片机\WCH\CH573\Projects\CH571_BLE_Hygrothermograph\LIB\libCH57xBLE.a(sm.o)
                0x0000000020004b88                smResponderCBs
 .data.gapAttrTbl
                0x0000000020004b94       0x90 G:\╄    单片机\WCH\CH573\Projects\CH571_BLE_Hygrothermograph\LIB\libCH57xBLE.a(gapgattserver.o)
 .data.gapServiceCBs
                0x0000000020004c24        0xc G:\╄    单片机\WCH\CH573\Projects\CH571_BLE_Hygrothermograph\LIB\libCH57xBLE.a(gapgattserver.o)
                0x0000000020004c24                gapServiceCBs
 *(.gnu.linkonce.d.*)
                0x0000000020004c30                . = ALIGN (0x8)
                0x0000000020005430                PROVIDE (__global_pointer$ = (. + 0x800))
 *(.sdata .sdata.*)
 .sdata         0x0000000020004c30        0x8 ./APP/broadcaster.o
 .sdata.holdrand.5448
                0x0000000020004c38        0x4 G:\╄    单片机\WCH\CH573\Projects\CH571_BLE_Hygrothermograph\LIB\libCH57xBLE.a(tmos.o)
 .sdata.gapAdvAppTaskID
                0x0000000020004c3c        0x1 G:\╄    单片机\WCH\CH573\Projects\CH571_BLE_Hygrothermograph\LIB\libCH57xBLE.a(gap_peripheral.o)
 .sdata.GATTServApp_TaskID
                0x0000000020004c3d        0x1 G:\╄    单片机\WCH\CH573\Projects\CH571_BLE_Hygrothermograph\LIB\libCH57xBLE.a(gattservapp.o)
 .sdata.appTaskID
                0x0000000020004c3e        0x1 G:\╄    单片机\WCH\CH573\Projects\CH571_BLE_Hygrothermograph\LIB\libCH57xBLE.a(gattservapp.o)
 *fill*         0x0000000020004c3f        0x1 
 .sdata.gattService
                0x0000000020004c40        0x8 G:\╄    单片机\WCH\CH573\Projects\CH571_BLE_Hygrothermograph\LIB\libCH57xBLE.a(gattservapp.o)
 .sdata.nextHandle
                0x0000000020004c48        0x2 G:\╄    单片机\WCH\CH573\Projects\CH571_BLE_Hygrothermograph\LIB\libCH57xBLE.a(gattservapp.o)
 .sdata.reqTaskId
                0x0000000020004c4a        0x1 G:\╄    单片机\WCH\CH573\Projects\CH571_BLE_Hygrothermograph\LIB\libCH57xBLE.a(gattservapp.o)
 .sdata.serviceChangedCharProps
                0x0000000020004c4b        0x1 G:\╄    单片机\WCH\CH573\Projects\CH571_BLE_Hygrothermograph\LIB\libCH57xBLE.a(gattservapp.o)
 .sdata.gapBondCB
                0x0000000020004c4c        0x8 G:\╄    单片机\WCH\CH573\Projects\CH571_BLE_Hygrothermograph\LIB\libCH57xBLE.a(gapbondmgr.o)
 .sdata.gapBond_Auto
                0x0000000020004c54        0x1 G:\╄    单片机\WCH\CH573\Projects\CH571_BLE_Hygrothermograph\LIB\libCH57xBLE.a(gapbondmgr.o)
                0x0000000020004c54                gapBond_Auto
 .sdata.gapBond_AutoFailReason
                0x0000000020004c55        0x1 G:\╄    单片机\WCH\CH573\Projects\CH571_BLE_Hygrothermograph\LIB\libCH57xBLE.a(gapbondmgr.o)
 .sdata.gapBond_BondFailOption
                0x0000000020004c56        0x1 G:\╄    单片机\WCH\CH573\Projects\CH571_BLE_Hygrothermograph\LIB\libCH57xBLE.a(gapbondmgr.o)
 .sdata.gapBond_Cent_KeyDistList
                0x0000000020004c57        0x1 G:\╄    单片机\WCH\CH573\Projects\CH571_BLE_Hygrothermograph\LIB\libCH57xBLE.a(gapbondmgr.o)
 .sdata.gapBond_Cent_PairingMode
                0x0000000020004c58        0x1 G:\╄    单片机\WCH\CH573\Projects\CH571_BLE_Hygrothermograph\LIB\libCH57xBLE.a(gapbondmgr.o)
 .sdata.gapBond_Erase
                0x0000000020004c59        0x1 G:\╄    单片机\WCH\CH573\Projects\CH571_BLE_Hygrothermograph\LIB\libCH57xBLE.a(gapbondmgr.o)
                0x0000000020004c59                gapBond_Erase
 .sdata.gapBond_KeySize
                0x0000000020004c5a        0x1 G:\╄    单片机\WCH\CH573\Projects\CH571_BLE_Hygrothermograph\LIB\libCH57xBLE.a(gapbondmgr.o)
 .sdata.gapBond_Peri_KeyDistList
                0x0000000020004c5b        0x1 G:\╄    单片机\WCH\CH573\Projects\CH571_BLE_Hygrothermograph\LIB\libCH57xBLE.a(gapbondmgr.o)
 .sdata.gapBond_Peri_PairingMode
                0x0000000020004c5c        0x1 G:\╄    单片机\WCH\CH573\Projects\CH571_BLE_Hygrothermograph\LIB\libCH57xBLE.a(gapbondmgr.o)
 .sdata.gapBond_Valid
                0x0000000020004c5d        0x1 G:\╄    单片机\WCH\CH573\Projects\CH571_BLE_Hygrothermograph\LIB\libCH57xBLE.a(gapbondmgr.o)
                0x0000000020004c5d                gapBond_Valid
 .sdata.gapCentralTaskID
                0x0000000020004c5e        0x1 G:\╄    单片机\WCH\CH573\Projects\CH571_BLE_Hygrothermograph\LIB\libCH57xBLE.a(role.o)
                0x0000000020004c5e                gapCentralTaskID
 .sdata.gapRole_AdvEnabled
                0x0000000020004c5f        0x1 G:\╄    单片机\WCH\CH573\Projects\CH571_BLE_Hygrothermograph\LIB\libCH57xBLE.a(role.o)
                0x0000000020004c5f                gapRole_AdvEnabled
 .sdata.gapRole_AdvertDataLen
                0x0000000020004c60        0x1 G:\╄    单片机\WCH\CH573\Projects\CH571_BLE_Hygrothermograph\LIB\libCH57xBLE.a(role.o)
                0x0000000020004c60                gapRole_AdvertDataLen
 *fill*         0x0000000020004c61        0x1 
 .sdata.gapRole_MaxConnInterval
                0x0000000020004c62        0x2 G:\╄    单片机\WCH\CH573\Projects\CH571_BLE_Hygrothermograph\LIB\libCH57xBLE.a(role.o)
                0x0000000020004c62                gapRole_MaxConnInterval
 .sdata.gapRole_MinConnInterval
                0x0000000020004c64        0x2 G:\╄    单片机\WCH\CH573\Projects\CH571_BLE_Hygrothermograph\LIB\libCH57xBLE.a(role.o)
                0x0000000020004c64                gapRole_MinConnInterval
 .sdata.gapRole_TaskID
                0x0000000020004c66        0x1 G:\╄    单片机\WCH\CH573\Projects\CH571_BLE_Hygrothermograph\LIB\libCH57xBLE.a(role.o)
                0x0000000020004c66                gapRole_TaskID
 .sdata.appearanceCharProps
                0x0000000020004c67        0x1 G:\╄    单片机\WCH\CH573\Projects\CH571_BLE_Hygrothermograph\LIB\libCH57xBLE.a(gapgattserver.o)
 .sdata.centAddrRes
                0x0000000020004c68        0x1 G:\╄    单片机\WCH\CH573\Projects\CH571_BLE_Hygrothermograph\LIB\libCH57xBLE.a(gapgattserver.o)
 .sdata.centAddrResCharProps
                0x0000000020004c69        0x1 G:\╄    单片机\WCH\CH573\Projects\CH571_BLE_Hygrothermograph\LIB\libCH57xBLE.a(gapgattserver.o)
 .sdata.deviceNameCharProps
                0x0000000020004c6a        0x1 G:\╄    单片机\WCH\CH573\Projects\CH571_BLE_Hygrothermograph\LIB\libCH57xBLE.a(gapgattserver.o)
 .sdata.periConnParamCharProps
                0x0000000020004c6b        0x1 G:\╄    单片机\WCH\CH573\Projects\CH571_BLE_Hygrothermograph\LIB\libCH57xBLE.a(gapgattserver.o)
 .sdata.periConnParameters
                0x0000000020004c6c        0x8 G:\╄    单片机\WCH\CH573\Projects\CH571_BLE_Hygrothermograph\LIB\libCH57xBLE.a(gapgattserver.o)
 .sdata.gattCentAppTaskID
                0x0000000020004c74        0x1 G:\╄    单片机\WCH\CH573\Projects\CH571_BLE_Hygrothermograph\LIB\libCH57xBLE.a(gatt.o)
 .sdata.gattPeriAppTaskID
                0x0000000020004c75        0x1 G:\╄    单片机\WCH\CH573\Projects\CH571_BLE_Hygrothermograph\LIB\libCH57xBLE.a(gatt.o)
 *(.gnu.linkonce.s.*)
                0x0000000020004c78                . = ALIGN (0x8)
 *fill*         0x0000000020004c76        0x2 
 *(.srodata.cst16)
 *(.srodata.cst8)
 .srodata.cst8  0x0000000020004c78       0x10 ./StdPeriphDriver/CH57x_clk.o
 .srodata.cst8  0x0000000020004c88        0x8 ./APP/broadcaster.o
 *(.srodata.cst4)
 .srodata.cst4  0x0000000020004c90        0x4 ./StdPeriphDriver/CH57x_clk.o
 .srodata.cst4  0x0000000020004c94        0x8 ./APP/SHT4X.o
 .srodata.cst4  0x0000000020004c9c        0x8 ./APP/broadcaster.o
 *(.srodata.cst2)
 *(.srodata .srodata.*)
                0x0000000020004ca4                . = ALIGN (0x4)
                0x0000000020004ca4                PROVIDE (_edata = .)

.bss            0x0000000020004ca4     0x1c7c load address 0x0000000000016c80
                0x0000000020004ca4                . = ALIGN (0x4)
                0x0000000020004ca4                PROVIDE (_sbss = .)
 *(.sbss*)
 .sbss          0x0000000020004ca4        0x4 ./StdPeriphDriver/CH57x_clk.o
                0x0000000020004ca4                Int32K_Tune_RAM
                0x0000000020004ca6                Int32K_Tune_FLASH
 .sbss          0x0000000020004ca8        0x1 ./HAL/MCU.o
                0x0000000020004ca8                halTaskID
 *fill*         0x0000000020004ca9        0x3 
 .sbss          0x0000000020004cac        0x4 ./HAL/RTC.o
                0x0000000020004cac                RTCTigFlag
 .sbss          0x0000000020004cb0        0x7 ./APP/broadcaster.o
 *fill*         0x0000000020004cb7        0x1 
 .sbss.msg_qHead
                0x0000000020004cb8        0x4 G:\╄    单片机\WCH\CH573\Projects\CH571_BLE_Hygrothermograph\LIB\libCH57xBLE.a(message.o)
                0x0000000020004cb8                msg_qHead
 .sbss.EventsArr
                0x0000000020004cbc        0x4 G:\╄    单片机\WCH\CH573\Projects\CH571_BLE_Hygrothermograph\LIB\libCH57xBLE.a(tmos.o)
                0x0000000020004cbc                EventsArr
 .sbss.Tune32K_FLASH
                0x0000000020004cc0        0x2 G:\╄    单片机\WCH\CH573\Projects\CH571_BLE_Hygrothermograph\LIB\libCH57xBLE.a(tmos.o)
                0x0000000020004cc0                Tune32K_FLASH
 .sbss.Tune32K_RAM
                0x0000000020004cc2        0x2 G:\╄    单片机\WCH\CH573\Projects\CH571_BLE_Hygrothermograph\LIB\libCH57xBLE.a(tmos.o)
                0x0000000020004cc2                Tune32K_RAM
 .sbss.cbTimersHead
                0x0000000020004cc4        0x4 G:\╄    单片机\WCH\CH573\Projects\CH571_BLE_Hygrothermograph\LIB\libCH57xBLE.a(tmos.o)
                0x0000000020004cc4                cbTimersHead
 .sbss.eventsClear
                0x0000000020004cc8        0x2 G:\╄    单片机\WCH\CH573\Projects\CH571_BLE_Hygrothermograph\LIB\libCH57xBLE.a(tmos.o)
                0x0000000020004cc8                eventsClear
 *fill*         0x0000000020004cca        0x2 
 .sbss.pfnTimerCBs
                0x0000000020004ccc        0x4 G:\╄    单片机\WCH\CH573\Projects\CH571_BLE_Hygrothermograph\LIB\libCH57xBLE.a(tmos.o)
                0x0000000020004ccc                pfnTimerCBs
 .sbss.taskHead
                0x0000000020004cd0        0x4 G:\╄    单片机\WCH\CH573\Projects\CH571_BLE_Hygrothermograph\LIB\libCH57xBLE.a(tmos.o)
                0x0000000020004cd0                taskHead
 .sbss.tasksArr
                0x0000000020004cd4        0x4 G:\╄    单片机\WCH\CH573\Projects\CH571_BLE_Hygrothermograph\LIB\libCH57xBLE.a(tmos.o)
                0x0000000020004cd4                tasksArr
 .sbss.fnGetClockCBs
                0x0000000020004cd8        0x4 G:\╄    单片机\WCH\CH573\Projects\CH571_BLE_Hygrothermograph\LIB\libCH57xBLE.a(tmos_hw.o)
                0x0000000020004cd8                fnGetClockCBs
 .sbss.gapCurrentRandomAddr
                0x0000000020004cdc        0x6 G:\╄    单片机\WCH\CH573\Projects\CH571_BLE_Hygrothermograph\LIB\libCH57xBLE.a(gap.o)
 *fill*         0x0000000020004ce2        0x2 
 .sbss.pEstLink
                0x0000000020004ce4        0x4 G:\╄    单片机\WCH\CH573\Projects\CH571_BLE_Hygrothermograph\LIB\libCH57xBLE.a(gap.o)
                0x0000000020004ce4                pEstLink
 .sbss.pGapAdvertState
                0x0000000020004ce8        0x4 G:\╄    单片机\WCH\CH573\Projects\CH571_BLE_Hygrothermograph\LIB\libCH57xBLE.a(gap.o)
                0x0000000020004ce8                pGapAdvertState
 .sbss.pfnCentralCBs
                0x0000000020004cec        0x4 G:\╄    单片机\WCH\CH573\Projects\CH571_BLE_Hygrothermograph\LIB\libCH57xBLE.a(gap.o)
 .sbss.pfnCentralConnCBs
                0x0000000020004cf0        0x4 G:\╄    单片机\WCH\CH573\Projects\CH571_BLE_Hygrothermograph\LIB\libCH57xBLE.a(gap.o)
 .sbss.pfnPeripheralCBs
                0x0000000020004cf4        0x4 G:\╄    单片机\WCH\CH573\Projects\CH571_BLE_Hygrothermograph\LIB\libCH57xBLE.a(gap.o)
 .sbss.pfnPeripheralConnCBs
                0x0000000020004cf8        0x4 G:\╄    单片机\WCH\CH573\Projects\CH571_BLE_Hygrothermograph\LIB\libCH57xBLE.a(gap.o)
 .sbss.slaveUpdateReq
                0x0000000020004cfc        0x8 G:\╄    单片机\WCH\CH573\Projects\CH571_BLE_Hygrothermograph\LIB\libCH57xBLE.a(gap.o)
 .sbss.terminateAllTaskID
                0x0000000020004d04        0x1 G:\╄    单片机\WCH\CH573\Projects\CH571_BLE_Hygrothermograph\LIB\libCH57xBLE.a(gap.o)
 .sbss.terminateReason
                0x0000000020004d05        0x1 G:\╄    单片机\WCH\CH573\Projects\CH571_BLE_Hygrothermograph\LIB\libCH57xBLE.a(gap.o)
 *fill*         0x0000000020004d06        0x2 
 .sbss.gapCentralConnCBs
                0x0000000020004d08        0x8 G:\╄    单片机\WCH\CH573\Projects\CH571_BLE_Hygrothermograph\LIB\libCH57xBLE.a(gap_central.o)
                0x0000000020004d08                gapCentralConnCBs
 .sbss.gapMaxScanResponses
                0x0000000020004d10        0x1 G:\╄    单片机\WCH\CH573\Projects\CH571_BLE_Hygrothermograph\LIB\libCH57xBLE.a(gap_central.o)
                0x0000000020004d10                gapMaxScanResponses
 *fill*         0x0000000020004d11        0x3 
 .sbss.pGapDiscReq
                0x0000000020004d14        0x4 G:\╄    单片机\WCH\CH573\Projects\CH571_BLE_Hygrothermograph\LIB\libCH57xBLE.a(gap_central.o)
                0x0000000020004d14                pGapDiscReq
 .sbss.pGapScanRecs
                0x0000000020004d18        0x4 G:\╄    单片机\WCH\CH573\Projects\CH571_BLE_Hygrothermograph\LIB\libCH57xBLE.a(gap_central.o)
                0x0000000020004d18                pGapScanRecs
 .sbss.gapLimitedAdvertisingTimeout
                0x0000000020004d1c        0x2 G:\╄    单片机\WCH\CH573\Projects\CH571_BLE_Hygrothermograph\LIB\libCH57xBLE.a(gap_peripheral.o)
 *fill*         0x0000000020004d1e        0x2 
 .sbss.gapPeripheralConnCBs
                0x0000000020004d20        0x4 G:\╄    单片机\WCH\CH573\Projects\CH571_BLE_Hygrothermograph\LIB\libCH57xBLE.a(gap_peripheral.o)
 .sbss.pGapAdData
                0x0000000020004d24        0x4 G:\╄    单片机\WCH\CH573\Projects\CH571_BLE_Hygrothermograph\LIB\libCH57xBLE.a(gap_peripheral.o)
 .sbss.pGapAdvTokens
                0x0000000020004d28        0x4 G:\╄    单片机\WCH\CH573\Projects\CH571_BLE_Hygrothermograph\LIB\libCH57xBLE.a(gap_peripheral.o)
 .sbss.pGapScanRspData
                0x0000000020004d2c        0x4 G:\╄    单片机\WCH\CH573\Projects\CH571_BLE_Hygrothermograph\LIB\libCH57xBLE.a(gap_peripheral.o)
 .sbss.attrLen  0x0000000020004d30        0x2 G:\╄    单片机\WCH\CH573\Projects\CH571_BLE_Hygrothermograph\LIB\libCH57xBLE.a(gattservapp.o)
 .sbss.gattAddService
                0x0000000020004d32        0x1 G:\╄    单片机\WCH\CH573\Projects\CH571_BLE_Hygrothermograph\LIB\libCH57xBLE.a(gattservapp.o)
 *fill*         0x0000000020004d33        0x1 
 .sbss.indCharCfg
                0x0000000020004d34        0x4 G:\╄    单片机\WCH\CH573\Projects\CH571_BLE_Hygrothermograph\LIB\libCH57xBLE.a(gattservapp.o)
 .sbss.pAttrValue
                0x0000000020004d38        0x4 G:\╄    单片机\WCH\CH573\Projects\CH571_BLE_Hygrothermograph\LIB\libCH57xBLE.a(gattservapp.o)
 .sbss.pServiceList
                0x0000000020004d3c        0x4 G:\╄    单片机\WCH\CH573\Projects\CH571_BLE_Hygrothermograph\LIB\libCH57xBLE.a(gattservapp.o)
 .sbss.prepareWritesTbl
                0x0000000020004d40        0x4 G:\╄    单片机\WCH\CH573\Projects\CH571_BLE_Hygrothermograph\LIB\libCH57xBLE.a(gattservapp.o)
 .sbss.serverInfoTbl
                0x0000000020004d44        0x4 G:\╄    单片机\WCH\CH573\Projects\CH571_BLE_Hygrothermograph\LIB\libCH57xBLE.a(gattservapp.o)
 .sbss.serviceCBsList
                0x0000000020004d48        0x4 G:\╄    单片机\WCH\CH573\Projects\CH571_BLE_Hygrothermograph\LIB\libCH57xBLE.a(gattservapp.o)
 .sbss.l2capChannels
                0x0000000020004d4c        0x4 G:\╄    单片机\WCH\CH573\Projects\CH571_BLE_Hygrothermograph\LIB\libCH57xBLE.a(l2cap.o)
                0x0000000020004d4c                l2capChannels
 .sbss.l2capFlowCtrlMode
                0x0000000020004d50        0x1 G:\╄    单片机\WCH\CH573\Projects\CH571_BLE_Hygrothermograph\LIB\libCH57xBLE.a(l2cap.o)
                0x0000000020004d50                l2capFlowCtrlMode
 .sbss.l2capId  0x0000000020004d51        0x1 G:\╄    单片机\WCH\CH573\Projects\CH571_BLE_Hygrothermograph\LIB\libCH57xBLE.a(l2cap.o)
                0x0000000020004d51                l2capId
 .sbss.l2capMtuSize
                0x0000000020004d52        0x2 G:\╄    单片机\WCH\CH573\Projects\CH571_BLE_Hygrothermograph\LIB\libCH57xBLE.a(l2cap.o)
                0x0000000020004d52                l2capMtuSize
 .sbss.l2capNumChannels
                0x0000000020004d54        0x1 G:\╄    单片机\WCH\CH573\Projects\CH571_BLE_Hygrothermograph\LIB\libCH57xBLE.a(l2cap.o)
                0x0000000020004d54                l2capNumChannels
 .sbss.l2capNumCoChannels
                0x0000000020004d55        0x1 G:\╄    单片机\WCH\CH573\Projects\CH571_BLE_Hygrothermograph\LIB\libCH57xBLE.a(l2cap.o)
                0x0000000020004d55                l2capNumCoChannels
 .sbss.l2capNumDataPkts
                0x0000000020004d56        0x1 G:\╄    单片机\WCH\CH573\Projects\CH571_BLE_Hygrothermograph\LIB\libCH57xBLE.a(l2cap.o)
                0x0000000020004d56                l2capNumDataPkts
 .sbss.l2capNumPSM
                0x0000000020004d57        0x1 G:\╄    单片机\WCH\CH573\Projects\CH571_BLE_Hygrothermograph\LIB\libCH57xBLE.a(l2cap.o)
                0x0000000020004d57                l2capNumPSM
 .sbss.l2capNumRecvDataPkts
                0x0000000020004d58        0x1 G:\╄    单片机\WCH\CH573\Projects\CH571_BLE_Hygrothermograph\LIB\libCH57xBLE.a(l2cap.o)
                0x0000000020004d58                l2capNumRecvDataPkts
 *fill*         0x0000000020004d59        0x3 
 .sbss.l2capPsm
                0x0000000020004d5c        0x4 G:\╄    单片机\WCH\CH573\Projects\CH571_BLE_Hygrothermograph\LIB\libCH57xBLE.a(l2cap.o)
                0x0000000020004d5c                l2capPsm
 .sbss.l2capTaskID
                0x0000000020004d60        0x1 G:\╄    单片机\WCH\CH573\Projects\CH571_BLE_Hygrothermograph\LIB\libCH57xBLE.a(l2cap.o)
                0x0000000020004d60                l2capTaskID
 *fill*         0x0000000020004d61        0x3 
 .sbss.l2capUserConfig
                0x0000000020004d64        0x2 G:\╄    单片机\WCH\CH573\Projects\CH571_BLE_Hygrothermograph\LIB\libCH57xBLE.a(l2cap.o)
                0x0000000020004d64                l2capUserConfig
 .sbss.nextIdx  0x0000000020004d66        0x1 G:\╄    单片机\WCH\CH573\Projects\CH571_BLE_Hygrothermograph\LIB\libCH57xBLE.a(l2cap.o)
                0x0000000020004d66                nextIdx
 *fill*         0x0000000020004d67        0x1 
 .sbss.linkDB   0x0000000020004d68        0x4 G:\╄    单片机\WCH\CH573\Projects\CH571_BLE_Hygrothermograph\LIB\libCH57xBLE.a(linkdb.o)
                0x0000000020004d68                linkDB
 .sbss.pSmGenKey
                0x0000000020004d6c        0x4 G:\╄    单片机\WCH\CH573\Projects\CH571_BLE_Hygrothermograph\LIB\libCH57xBLE.a(sm.o)
                0x0000000020004d6c                pSmGenKey
 .sbss.pfnInitiatorCBs
                0x0000000020004d70        0x4 G:\╄    单片机\WCH\CH573\Projects\CH571_BLE_Hygrothermograph\LIB\libCH57xBLE.a(sm.o)
                0x0000000020004d70                pfnInitiatorCBs
 .sbss.pfnResponderCBs
                0x0000000020004d74        0x4 G:\╄    单片机\WCH\CH573\Projects\CH571_BLE_Hygrothermograph\LIB\libCH57xBLE.a(sm.o)
                0x0000000020004d74                pfnResponderCBs
 .sbss.fragment.4226
                0x0000000020004d78        0x1 G:\╄    单片机\WCH\CH573\Projects\CH571_BLE_Hygrothermograph\LIB\libCH57xBLE.a(host_input.o)
 *fill*         0x0000000020004d79        0x3 
 .sbss.gBleHostPara
                0x0000000020004d7c        0x6 G:\╄    单片机\WCH\CH573\Projects\CH571_BLE_Hygrothermograph\LIB\libCH57xBLE.a(host_input.o)
                0x0000000020004d7c                gBleHostPara
 .sbss.l2cap_fragment_length
                0x0000000020004d82        0x2 G:\╄    单片机\WCH\CH573\Projects\CH571_BLE_Hygrothermograph\LIB\libCH57xBLE.a(host_input.o)
                0x0000000020004d82                l2cap_fragment_length
 .sbss.l2cap_head_length
                0x0000000020004d84        0x2 G:\╄    单片机\WCH\CH573\Projects\CH571_BLE_Hygrothermograph\LIB\libCH57xBLE.a(host_input.o)
                0x0000000020004d84                l2cap_head_length
 *fill*         0x0000000020004d86        0x2 
 .sbss.pL2capDataBuf
                0x0000000020004d88        0x4 G:\╄    单片机\WCH\CH573\Projects\CH571_BLE_Hygrothermograph\LIB\libCH57xBLE.a(host_input.o)
                0x0000000020004d88                pL2capDataBuf
 .sbss.llRecvDataDisable
                0x0000000020004d8c        0x4 G:\╄    单片机\WCH\CH573\Projects\CH571_BLE_Hygrothermograph\LIB\libCH57xBLE.a(ll_connect.o)
                0x0000000020004d8c                llRecvDataDisable
 .sbss.pfnConnectEventCBs
                0x0000000020004d90        0x4 G:\╄    单片机\WCH\CH573\Projects\CH571_BLE_Hygrothermograph\LIB\libCH57xBLE.a(ll_connect.o)
                0x0000000020004d90                pfnConnectEventCBs
 .sbss.gptrAESReg
                0x0000000020004d94        0x4 G:\╄    单片机\WCH\CH573\Projects\CH571_BLE_Hygrothermograph\LIB\libCH57xBLE.a(aes.o)
                0x0000000020004d94                gptrAESReg
 .sbss.gptrBBReg
                0x0000000020004d98        0x4 G:\╄    单片机\WCH\CH573\Projects\CH571_BLE_Hygrothermograph\LIB\libCH57xBLE.a(bb.o)
                0x0000000020004d98                gptrBBReg
 .sbss.gptrDMAReg
                0x0000000020004d9c        0x4 G:\╄    单片机\WCH\CH573\Projects\CH571_BLE_Hygrothermograph\LIB\libCH57xBLE.a(dma.o)
                0x0000000020004d9c                gptrDMAReg
 .sbss.cfo_comp
                0x0000000020004da0        0x2 G:\╄    单片机\WCH\CH573\Projects\CH571_BLE_Hygrothermograph\LIB\libCH57xBLE.a(ip.o)
                0x0000000020004da0                cfo_comp
 *fill*         0x0000000020004da2        0x2 
 .sbss.gPaControl
                0x0000000020004da4        0x4 G:\╄    单片机\WCH\CH573\Projects\CH571_BLE_Hygrothermograph\LIB\libCH57xBLE.a(ip.o)
                0x0000000020004da4                gPaControl
 .sbss.gptrLLEReg
                0x0000000020004da8        0x4 G:\╄    单片机\WCH\CH573\Projects\CH571_BLE_Hygrothermograph\LIB\libCH57xBLE.a(lle.o)
                0x0000000020004da8                gptrLLEReg
 .sbss.ftuneFlag
                0x0000000020004dac        0x4 G:\╄    单片机\WCH\CH573\Projects\CH571_BLE_Hygrothermograph\LIB\libCH57xBLE.a(rfend.o)
                0x0000000020004dac                ftuneFlag
 .sbss.gModeAdc
                0x0000000020004db0        0x1 G:\╄    单片机\WCH\CH573\Projects\CH571_BLE_Hygrothermograph\LIB\libCH57xBLE.a(rfend.o)
                0x0000000020004db0                gModeAdc
 *fill*         0x0000000020004db1        0x3 
 .sbss.gptrRFENDReg
                0x0000000020004db4        0x4 G:\╄    单片机\WCH\CH573\Projects\CH571_BLE_Hygrothermograph\LIB\libCH57xBLE.a(rfend.o)
                0x0000000020004db4                gptrRFENDReg
 .sbss.nCO2401  0x0000000020004db8        0x1 G:\╄    单片机\WCH\CH573\Projects\CH571_BLE_Hygrothermograph\LIB\libCH57xBLE.a(rfend.o)
                0x0000000020004db8                nCO2401
 .sbss.nCO2440  0x0000000020004db9        0x1 G:\╄    单片机\WCH\CH573\Projects\CH571_BLE_Hygrothermograph\LIB\libCH57xBLE.a(rfend.o)
                0x0000000020004db9                nCO2440
 .sbss.nCO2480  0x0000000020004dba        0x1 G:\╄    单片机\WCH\CH573\Projects\CH571_BLE_Hygrothermograph\LIB\libCH57xBLE.a(rfend.o)
                0x0000000020004dba                nCO2480
 .sbss.nGA2401  0x0000000020004dbb        0x1 G:\╄    单片机\WCH\CH573\Projects\CH571_BLE_Hygrothermograph\LIB\libCH57xBLE.a(rfend.o)
                0x0000000020004dbb                nGA2401
 .sbss.nGA2440  0x0000000020004dbc        0x1 G:\╄    单片机\WCH\CH573\Projects\CH571_BLE_Hygrothermograph\LIB\libCH57xBLE.a(rfend.o)
                0x0000000020004dbc                nGA2440
 .sbss.nGA2480  0x0000000020004dbd        0x1 G:\╄    单片机\WCH\CH573\Projects\CH571_BLE_Hygrothermograph\LIB\libCH57xBLE.a(rfend.o)
                0x0000000020004dbd                nGA2480
 .sbss.fragment.6318
                0x0000000020004dbe        0x1 G:\╄    单片机\WCH\CH573\Projects\CH571_BLE_Hygrothermograph\LIB\libCH57xBLE.a(ctl_input.o)
 *fill*         0x0000000020004dbf        0x1 
 .sbss.pGapRoles_AppCGs
                0x0000000020004dc0        0x4 G:\╄    单片机\WCH\CH573\Projects\CH571_BLE_Hygrothermograph\LIB\libCH57xBLE.a(broadcaster.o)
                0x0000000020004dc0                pGapRoles_AppCGs
 .sbss.autoSyncResolveList
                0x0000000020004dc4        0x1 G:\╄    单片机\WCH\CH573\Projects\CH571_BLE_Hygrothermograph\LIB\libCH57xBLE.a(gapbondmgr.o)
 .sbss.autoSyncWhiteList
                0x0000000020004dc5        0x1 G:\╄    单片机\WCH\CH573\Projects\CH571_BLE_Hygrothermograph\LIB\libCH57xBLE.a(gapbondmgr.o)
 .sbss.bondIdx  0x0000000020004dc6        0x1 G:\╄    单片机\WCH\CH573\Projects\CH571_BLE_Hygrothermograph\LIB\libCH57xBLE.a(gapbondmgr.o)
 *fill*         0x0000000020004dc7        0x1 
 .sbss.bonds    0x0000000020004dc8        0x4 G:\╄    单片机\WCH\CH573\Projects\CH571_BLE_Hygrothermograph\LIB\libCH57xBLE.a(gapbondmgr.o)
 .sbss.eraseAllBonds
                0x0000000020004dcc        0x1 G:\╄    单片机\WCH\CH573\Projects\CH571_BLE_Hygrothermograph\LIB\libCH57xBLE.a(gapbondmgr.o)
 .sbss.gapBondMax
                0x0000000020004dcd        0x1 G:\╄    单片机\WCH\CH573\Projects\CH571_BLE_Hygrothermograph\LIB\libCH57xBLE.a(gapbondmgr.o)
 .sbss.gapBondMgr_TaskID
                0x0000000020004dce        0x1 G:\╄    单片机\WCH\CH573\Projects\CH571_BLE_Hygrothermograph\LIB\libCH57xBLE.a(gapbondmgr.o)
 *fill*         0x0000000020004dcf        0x1 
 .sbss.gapBondSignAddr
                0x0000000020004dd0        0x7 G:\╄    单片机\WCH\CH573\Projects\CH571_BLE_Hygrothermograph\LIB\libCH57xBLE.a(gapbondmgr.o)
                0x0000000020004dd0                gapBondSignAddr
 .sbss.gapBondSign_Valid
                0x0000000020004dd7        0x1 G:\╄    单片机\WCH\CH573\Projects\CH571_BLE_Hygrothermograph\LIB\libCH57xBLE.a(gapbondmgr.o)
                0x0000000020004dd7                gapBondSign_Valid
 .sbss.gapBond_AutoFail
                0x0000000020004dd8        0x1 G:\╄    单片机\WCH\CH573\Projects\CH571_BLE_Hygrothermograph\LIB\libCH57xBLE.a(gapbondmgr.o)
 .sbss.gapBond_Cent_Bonding
                0x0000000020004dd9        0x1 G:\╄    单片机\WCH\CH573\Projects\CH571_BLE_Hygrothermograph\LIB\libCH57xBLE.a(gapbondmgr.o)
 .sbss.gapBond_Cent_IOCap
                0x0000000020004dda        0x1 G:\╄    单片机\WCH\CH573\Projects\CH571_BLE_Hygrothermograph\LIB\libCH57xBLE.a(gapbondmgr.o)
 .sbss.gapBond_Cent_MITM
                0x0000000020004ddb        0x1 G:\╄    单片机\WCH\CH573\Projects\CH571_BLE_Hygrothermograph\LIB\libCH57xBLE.a(gapbondmgr.o)
 .sbss.gapBond_Cent_OOBDataFlag
                0x0000000020004ddc        0x1 G:\╄    单片机\WCH\CH573\Projects\CH571_BLE_Hygrothermograph\LIB\libCH57xBLE.a(gapbondmgr.o)
 *fill*         0x0000000020004ddd        0x3 
 .sbss.gapBond_Cent_Passcode
                0x0000000020004de0        0x4 G:\╄    单片机\WCH\CH573\Projects\CH571_BLE_Hygrothermograph\LIB\libCH57xBLE.a(gapbondmgr.o)
 .sbss.gapBond_Invalid
                0x0000000020004de4        0x1 G:\╄    单片机\WCH\CH573\Projects\CH571_BLE_Hygrothermograph\LIB\libCH57xBLE.a(gapbondmgr.o)
                0x0000000020004de4                gapBond_Invalid
 .sbss.gapBond_Peri_Bonding
                0x0000000020004de5        0x1 G:\╄    单片机\WCH\CH573\Projects\CH571_BLE_Hygrothermograph\LIB\libCH57xBLE.a(gapbondmgr.o)
 .sbss.gapBond_Peri_IOCap
                0x0000000020004de6        0x1 G:\╄    单片机\WCH\CH573\Projects\CH571_BLE_Hygrothermograph\LIB\libCH57xBLE.a(gapbondmgr.o)
 .sbss.gapBond_Peri_MITM
                0x0000000020004de7        0x1 G:\╄    单片机\WCH\CH573\Projects\CH571_BLE_Hygrothermograph\LIB\libCH57xBLE.a(gapbondmgr.o)
 .sbss.gapBond_Peri_OOBDataFlag
                0x0000000020004de8        0x1 G:\╄    单片机\WCH\CH573\Projects\CH571_BLE_Hygrothermograph\LIB\libCH57xBLE.a(gapbondmgr.o)
 *fill*         0x0000000020004de9        0x3 
 .sbss.gapBond_Peri_Passcode
                0x0000000020004dec        0x4 G:\╄    单片机\WCH\CH573\Projects\CH571_BLE_Hygrothermograph\LIB\libCH57xBLE.a(gapbondmgr.o)
 .sbss.gattCCFlag
                0x0000000020004df0        0x1 G:\╄    单片机\WCH\CH573\Projects\CH571_BLE_Hygrothermograph\LIB\libCH57xBLE.a(gapbondmgr.o)
 *fill*         0x0000000020004df1        0x3 
 .sbss.pAttr.4277
                0x0000000020004df4        0x4 G:\╄    单片机\WCH\CH573\Projects\CH571_BLE_Hygrothermograph\LIB\libCH57xBLE.a(gapbondmgr.o)
 .sbss.pAuthEvt
                0x0000000020004df8        0x4 G:\╄    单片机\WCH\CH573\Projects\CH571_BLE_Hygrothermograph\LIB\libCH57xBLE.a(gapbondmgr.o)
 .sbss.pGapBondCB
                0x0000000020004dfc        0x4 G:\╄    单片机\WCH\CH573\Projects\CH571_BLE_Hygrothermograph\LIB\libCH57xBLE.a(gapbondmgr.o)
 .sbss.pGapCentBondCB
                0x0000000020004e00        0x4 G:\╄    单片机\WCH\CH573\Projects\CH571_BLE_Hygrothermograph\LIB\libCH57xBLE.a(gapbondmgr.o)
 .sbss.pGapPeriBondCB
                0x0000000020004e04        0x4 G:\╄    单片机\WCH\CH573\Projects\CH571_BLE_Hygrothermograph\LIB\libCH57xBLE.a(gapbondmgr.o)
 .sbss.service.4278
                0x0000000020004e08        0x2 G:\╄    单片机\WCH\CH573\Projects\CH571_BLE_Hygrothermograph\LIB\libCH57xBLE.a(gapbondmgr.o)
 .sbss.gapMaxScanRes
                0x0000000020004e0a        0x1 G:\╄    单片机\WCH\CH573\Projects\CH571_BLE_Hygrothermograph\LIB\libCH57xBLE.a(role.o)
                0x0000000020004e0a                gapMaxScanRes
 .sbss.gapRole_AdvChanMap
                0x0000000020004e0b        0x1 G:\╄    单片机\WCH\CH573\Projects\CH571_BLE_Hygrothermograph\LIB\libCH57xBLE.a(role.o)
                0x0000000020004e0b                gapRole_AdvChanMap
 .sbss.gapRole_AdvDirectAddr
                0x0000000020004e0c        0x6 G:\╄    单片机\WCH\CH573\Projects\CH571_BLE_Hygrothermograph\LIB\libCH57xBLE.a(role.o)
                0x0000000020004e0c                gapRole_AdvDirectAddr
 .sbss.gapRole_AdvDirectType
                0x0000000020004e12        0x1 G:\╄    单片机\WCH\CH573\Projects\CH571_BLE_Hygrothermograph\LIB\libCH57xBLE.a(role.o)
                0x0000000020004e12                gapRole_AdvDirectType
 .sbss.gapRole_AdvEventType
                0x0000000020004e13        0x1 G:\╄    单片机\WCH\CH573\Projects\CH571_BLE_Hygrothermograph\LIB\libCH57xBLE.a(role.o)
                0x0000000020004e13                gapRole_AdvEventType
 .sbss.gapRole_AdvFilterPolicy
                0x0000000020004e14        0x1 G:\╄    单片机\WCH\CH573\Projects\CH571_BLE_Hygrothermograph\LIB\libCH57xBLE.a(role.o)
                0x0000000020004e14                gapRole_AdvFilterPolicy
 *fill*         0x0000000020004e15        0x3 
 .sbss.gapRole_AdvertData
                0x0000000020004e18        0x4 G:\╄    单片机\WCH\CH573\Projects\CH571_BLE_Hygrothermograph\LIB\libCH57xBLE.a(role.o)
                0x0000000020004e18                gapRole_AdvertData
 .sbss.gapRole_MasterAndSlave
                0x0000000020004e1c        0x1 G:\╄    单片机\WCH\CH573\Projects\CH571_BLE_Hygrothermograph\LIB\libCH57xBLE.a(role.o)
                0x0000000020004e1c                gapRole_MasterAndSlave
 *fill*         0x0000000020004e1d        0x3 
 .sbss.gapRole_ScanRspData
                0x0000000020004e20        0x4 G:\╄    单片机\WCH\CH573\Projects\CH571_BLE_Hygrothermograph\LIB\libCH57xBLE.a(role.o)
                0x0000000020004e20                gapRole_ScanRspData
 .sbss.gapRole_ScanRspDataLen
                0x0000000020004e24        0x1 G:\╄    单片机\WCH\CH573\Projects\CH571_BLE_Hygrothermograph\LIB\libCH57xBLE.a(role.o)
                0x0000000020004e24                gapRole_ScanRspDataLen
 *fill*         0x0000000020004e25        0x3 
 .sbss.gapRole_bdAddr
                0x0000000020004e28        0x6 G:\╄    单片机\WCH\CH573\Projects\CH571_BLE_Hygrothermograph\LIB\libCH57xBLE.a(role.o)
                0x0000000020004e28                gapRole_bdAddr
 .sbss.gapRole_profileRole
                0x0000000020004e2e        0x1 G:\╄    单片机\WCH\CH573\Projects\CH571_BLE_Hygrothermograph\LIB\libCH57xBLE.a(role.o)
                0x0000000020004e2e                gapRole_profileRole
 *fill*         0x0000000020004e2f        0x1 
 .sbss.gapRole_signCounter
                0x0000000020004e30        0x4 G:\╄    单片机\WCH\CH573\Projects\CH571_BLE_Hygrothermograph\LIB\libCH57xBLE.a(role.o)
                0x0000000020004e30                gapRole_signCounter
 .sbss.gapRole_state
                0x0000000020004e34        0x4 G:\╄    单片机\WCH\CH573\Projects\CH571_BLE_Hygrothermograph\LIB\libCH57xBLE.a(role.o)
                0x0000000020004e34                gapRole_state
 .sbss.MemCtlEnd
                0x0000000020004e38        0x4 G:\╄    单片机\WCH\CH573\Projects\CH571_BLE_Hygrothermograph\LIB\libCH57xBLE.a(memory.o)
                0x0000000020004e38                MemCtlEnd
 .sbss.MemCtlPartition
                0x0000000020004e3c        0x4 G:\╄    单片机\WCH\CH573\Projects\CH571_BLE_Hygrothermograph\LIB\libCH57xBLE.a(memory.o)
                0x0000000020004e3c                MemCtlPartition
 .sbss.MemCtlStart
                0x0000000020004e40        0x4 G:\╄    单片机\WCH\CH573\Projects\CH571_BLE_Hygrothermograph\LIB\libCH57xBLE.a(memory.o)
                0x0000000020004e40                MemCtlStart
 .sbss.attClientNotifyTxCB
                0x0000000020004e44        0x4 G:\╄    单片机\WCH\CH573\Projects\CH571_BLE_Hygrothermograph\LIB\libCH57xBLE.a(att.o)
                0x0000000020004e44                attClientNotifyTxCB
 .sbss.attServerNotifyTxCB
                0x0000000020004e48        0x4 G:\╄    单片机\WCH\CH573\Projects\CH571_BLE_Hygrothermograph\LIB\libCH57xBLE.a(att.o)
                0x0000000020004e48                attServerNotifyTxCB
 .sbss.appearance
                0x0000000020004e4c        0x2 G:\╄    单片机\WCH\CH573\Projects\CH571_BLE_Hygrothermograph\LIB\libCH57xBLE.a(gapgattserver.o)
 .sbss.ggsAddService
                0x0000000020004e4e        0x1 G:\╄    单片机\WCH\CH573\Projects\CH571_BLE_Hygrothermograph\LIB\libCH57xBLE.a(gapgattserver.o)
 *fill*         0x0000000020004e4f        0x1 
 .sbss.ggs_AppCBs
                0x0000000020004e50        0x4 G:\╄    单片机\WCH\CH573\Projects\CH571_BLE_Hygrothermograph\LIB\libCH57xBLE.a(gapgattserver.o)
 .sbss.gattTaskID
                0x0000000020004e54        0x1 G:\╄    单片机\WCH\CH573\Projects\CH571_BLE_Hygrothermograph\LIB\libCH57xBLE.a(gatt.o)
                0x0000000020004e54                gattTaskID
 *fill*         0x0000000020004e55        0x3 
 .sbss.pfnClientProcessMsgCB
                0x0000000020004e58        0x4 G:\╄    单片机\WCH\CH573\Projects\CH571_BLE_Hygrothermograph\LIB\libCH57xBLE.a(gatt.o)
                0x0000000020004e58                pfnClientProcessMsgCB
 .sbss.pfnServerProcessMsgCB
                0x0000000020004e5c        0x4 G:\╄    单片机\WCH\CH573\Projects\CH571_BLE_Hygrothermograph\LIB\libCH57xBLE.a(gatt.o)
                0x0000000020004e5c                pfnServerProcessMsgCB
 .sbss.pfnAdvertiseEventCBs
                0x0000000020004e60        0x4 G:\╄    单片机\WCH\CH573\Projects\CH571_BLE_Hygrothermograph\LIB\libCH57xBLE.a(ll_advertise.o)
                0x0000000020004e60                pfnAdvertiseEventCBs
 *(.gnu.linkonce.sb.*)
 *(.bss*)
 .bss           0x0000000020004e64     0x1800 ./APP/broadcaster_main.o
                0x0000000020004e64                MEM_BUF
 .bss.ble       0x0000000020006664       0x3c G:\╄    单片机\WCH\CH573\Projects\CH571_BLE_Hygrothermograph\LIB\libCH57xBLE.a(tmos.o)
                0x0000000020006664                ble
 .bss.gTmosPara
                0x00000000200066a0       0x24 G:\╄    单片机\WCH\CH573\Projects\CH571_BLE_Hygrothermograph\LIB\libCH57xBLE.a(tmos.o)
                0x00000000200066a0                gTmosPara
 .bss.pfnProcessCBs
                0x00000000200066c4       0x1c G:\╄    单片机\WCH\CH573\Projects\CH571_BLE_Hygrothermograph\LIB\libCH57xBLE.a(tmos.o)
                0x00000000200066c4                pfnProcessCBs
 .bss.gapParameters
                0x00000000200066e0       0x34 G:\╄    单片机\WCH\CH573\Projects\CH571_BLE_Hygrothermograph\LIB\libCH57xBLE.a(gap.o)
                0x00000000200066e0                gapParameters
 .bss.gapParams
                0x0000000020006714       0x20 G:\╄    单片机\WCH\CH573\Projects\CH571_BLE_Hygrothermograph\LIB\libCH57xBLE.a(gap.o)
                0x0000000020006714                gapParams
 .bss.gapCentralCBs
                0x0000000020006734        0xc G:\╄    单片机\WCH\CH573\Projects\CH571_BLE_Hygrothermograph\LIB\libCH57xBLE.a(gap_central.o)
                0x0000000020006734                gapCentralCBs
 .bss.gapPeripheralCBs
                0x0000000020006740        0xc G:\╄    单片机\WCH\CH573\Projects\CH571_BLE_Hygrothermograph\LIB\libCH57xBLE.a(gap_peripheral.o)
 .bss.rsp       0x000000002000674c       0x18 G:\╄    单片机\WCH\CH573\Projects\CH571_BLE_Hygrothermograph\LIB\libCH57xBLE.a(gattservapp.o)
 .bss.l2capFixedChannels
                0x0000000020006764       0x30 G:\╄    单片机\WCH\CH573\Projects\CH571_BLE_Hygrothermograph\LIB\libCH57xBLE.a(l2cap.o)
                0x0000000020006764                l2capFixedChannels
 .bss.linkCBs   0x0000000020006794       0x30 G:\╄    单片机\WCH\CH573\Projects\CH571_BLE_Hygrothermograph\LIB\libCH57xBLE.a(linkdb.o)
                0x0000000020006794                linkCBs
 .bss.gBleIPPara
                0x00000000200067c4       0x1c G:\╄    单片机\WCH\CH573\Projects\CH571_BLE_Hygrothermograph\LIB\libCH57xBLE.a(ip.o)
                0x00000000200067c4                gBleIPPara
 .bss.rfConfig  0x00000000200067e0       0x20 G:\╄    单片机\WCH\CH573\Projects\CH571_BLE_Hygrothermograph\LIB\libCH57xBLE.a(ip.o)
                0x00000000200067e0                rfConfig
 .bss.rfInfo    0x0000000020006800       0x1c G:\╄    单片机\WCH\CH573\Projects\CH571_BLE_Hygrothermograph\LIB\libCH57xBLE.a(rf_fh.o)
                0x0000000020006800                rfInfo
 .bss.gapBond_Cent_OOBData
                0x000000002000681c       0x10 G:\╄    单片机\WCH\CH573\Projects\CH571_BLE_Hygrothermograph\LIB\libCH57xBLE.a(gapbondmgr.o)
 .bss.gapBond_Peri_OOBData
                0x000000002000682c       0x10 G:\╄    单片机\WCH\CH573\Projects\CH571_BLE_Hygrothermograph\LIB\libCH57xBLE.a(gapbondmgr.o)
 .bss.gapRole_IRK
                0x000000002000683c       0x10 G:\╄    单片机\WCH\CH573\Projects\CH571_BLE_Hygrothermograph\LIB\libCH57xBLE.a(role.o)
                0x000000002000683c                gapRole_IRK
 .bss.gapRole_SRK
                0x000000002000684c       0x10 G:\╄    单片机\WCH\CH573\Projects\CH571_BLE_Hygrothermograph\LIB\libCH57xBLE.a(role.o)
                0x000000002000684c                gapRole_SRK
 .bss.deviceName
                0x000000002000685c       0x16 G:\╄    单片机\WCH\CH573\Projects\CH571_BLE_Hygrothermograph\LIB\libCH57xBLE.a(gapgattserver.o)
 *fill*         0x0000000020006872        0x2 
 .bss.gBleLlPara
                0x0000000020006874       0xac G:\╄    单片机\WCH\CH573\Projects\CH571_BLE_Hygrothermograph\LIB\libCH57xBLE.a(ll.o)
                0x0000000020006874                gBleLlPara
 *(.gnu.linkonce.b.*)
 *(COMMON*)
                0x0000000020006920                . = ALIGN (0x4)
                0x0000000020006920                PROVIDE (_ebss = .)
                [!provide]                        PROVIDE (_end = _ebss)
                [!provide]                        PROVIDE (end = .)

.stack          0x0000000020008000        0x0
                0x0000000020008000                . = ALIGN (0x4)
                0x0000000020008000                PROVIDE (_eusrstack = .)
OUTPUT(CH571_BLE_Hygrothermograph.elf elf32-littleriscv)

.debug_info     0x0000000000000000     0xd7f2
 .debug_info    0x0000000000000000      0xee2 ./StdPeriphDriver/CH57x_adc.o
 .debug_info    0x0000000000000ee2     0x167b ./StdPeriphDriver/CH57x_clk.o
 .debug_info    0x000000000000255d      0xdae ./StdPeriphDriver/CH57x_gpio.o
 .debug_info    0x000000000000330b     0x1531 ./StdPeriphDriver/CH57x_pwr.o
 .debug_info    0x000000000000483c     0x135e ./StdPeriphDriver/CH57x_sys.o
 .debug_info    0x0000000000005b9a       0x22 ./Startup/startup_CH573.o
 .debug_info    0x0000000000005bbc     0x18c5 ./HAL/MCU.o
 .debug_info    0x0000000000007481      0xe8b ./HAL/RTC.o
 .debug_info    0x000000000000830c     0x1205 ./HAL/SLEEP.o
 .debug_info    0x0000000000009511      0xff3 ./APP/I2C.o
 .debug_info    0x000000000000a504      0xeee ./APP/SHT4X.o
 .debug_info    0x000000000000b3f2     0x14be ./APP/broadcaster.o
 .debug_info    0x000000000000c8b0      0xf42 ./APP/broadcaster_main.o

.debug_abbrev   0x0000000000000000     0x2625
 .debug_abbrev  0x0000000000000000      0x2cf ./StdPeriphDriver/CH57x_adc.o
 .debug_abbrev  0x00000000000002cf      0x3bf ./StdPeriphDriver/CH57x_clk.o
 .debug_abbrev  0x000000000000068e      0x268 ./StdPeriphDriver/CH57x_gpio.o
 .debug_abbrev  0x00000000000008f6      0x369 ./StdPeriphDriver/CH57x_pwr.o
 .debug_abbrev  0x0000000000000c5f      0x392 ./StdPeriphDriver/CH57x_sys.o
 .debug_abbrev  0x0000000000000ff1       0x12 ./Startup/startup_CH573.o
 .debug_abbrev  0x0000000000001003      0x450 ./HAL/MCU.o
 .debug_abbrev  0x0000000000001453      0x2ab ./HAL/RTC.o
 .debug_abbrev  0x00000000000016fe      0x32a ./HAL/SLEEP.o
 .debug_abbrev  0x0000000000001a28      0x2b4 ./APP/I2C.o
 .debug_abbrev  0x0000000000001cdc      0x327 ./APP/SHT4X.o
 .debug_abbrev  0x0000000000002003      0x3ab ./APP/broadcaster.o
 .debug_abbrev  0x00000000000023ae      0x277 ./APP/broadcaster_main.o

.debug_loc      0x0000000000000000     0x1fee
 .debug_loc     0x0000000000000000      0x211 ./StdPeriphDriver/CH57x_adc.o
 .debug_loc     0x0000000000000211      0xb85 ./StdPeriphDriver/CH57x_clk.o
 .debug_loc     0x0000000000000d96      0x361 ./StdPeriphDriver/CH57x_gpio.o
 .debug_loc     0x00000000000010f7      0x2f7 ./StdPeriphDriver/CH57x_pwr.o
 .debug_loc     0x00000000000013ee      0x28b ./StdPeriphDriver/CH57x_sys.o
 .debug_loc     0x0000000000001679      0x35a ./HAL/MCU.o
 .debug_loc     0x00000000000019d3       0xa7 ./HAL/SLEEP.o
 .debug_loc     0x0000000000001a7a      0x143 ./APP/I2C.o
 .debug_loc     0x0000000000001bbd      0x25d ./APP/SHT4X.o
 .debug_loc     0x0000000000001e1a      0x1d4 ./APP/broadcaster.o

.debug_aranges  0x0000000000000000      0x418
 .debug_aranges
                0x0000000000000000       0x70 ./StdPeriphDriver/CH57x_adc.o
 .debug_aranges
                0x0000000000000070       0xb0 ./StdPeriphDriver/CH57x_clk.o
 .debug_aranges
                0x0000000000000120       0x48 ./StdPeriphDriver/CH57x_gpio.o
 .debug_aranges
                0x0000000000000168       0x60 ./StdPeriphDriver/CH57x_pwr.o
 .debug_aranges
                0x00000000000001c8       0x88 ./StdPeriphDriver/CH57x_sys.o
 .debug_aranges
                0x0000000000000250       0x38 ./Startup/startup_CH573.o
 .debug_aranges
                0x0000000000000288       0x50 ./HAL/MCU.o
 .debug_aranges
                0x00000000000002d8       0x30 ./HAL/RTC.o
 .debug_aranges
                0x0000000000000308       0x28 ./HAL/SLEEP.o
 .debug_aranges
                0x0000000000000330       0x58 ./APP/I2C.o
 .debug_aranges
                0x0000000000000388       0x30 ./APP/SHT4X.o
 .debug_aranges
                0x00000000000003b8       0x38 ./APP/broadcaster.o
 .debug_aranges
                0x00000000000003f0       0x28 ./APP/broadcaster_main.o

.debug_ranges   0x0000000000000000      0x570
 .debug_ranges  0x0000000000000000       0x60 ./StdPeriphDriver/CH57x_adc.o
 .debug_ranges  0x0000000000000060      0x198 ./StdPeriphDriver/CH57x_clk.o
 .debug_ranges  0x00000000000001f8       0x38 ./StdPeriphDriver/CH57x_gpio.o
 .debug_ranges  0x0000000000000230       0xa8 ./StdPeriphDriver/CH57x_pwr.o
 .debug_ranges  0x00000000000002d8       0x90 ./StdPeriphDriver/CH57x_sys.o
 .debug_ranges  0x0000000000000368       0x30 ./Startup/startup_CH573.o
 .debug_ranges  0x0000000000000398       0x80 ./HAL/MCU.o
 .debug_ranges  0x0000000000000418       0x50 ./HAL/RTC.o
 .debug_ranges  0x0000000000000468       0x18 ./HAL/SLEEP.o
 .debug_ranges  0x0000000000000480       0x48 ./APP/I2C.o
 .debug_ranges  0x00000000000004c8       0x38 ./APP/SHT4X.o
 .debug_ranges  0x0000000000000500       0x58 ./APP/broadcaster.o
 .debug_ranges  0x0000000000000558       0x18 ./APP/broadcaster_main.o

.debug_line     0x0000000000000000     0x801d
 .debug_line    0x0000000000000000      0x914 ./StdPeriphDriver/CH57x_adc.o
 .debug_line    0x0000000000000914     0x1d65 ./StdPeriphDriver/CH57x_clk.o
 .debug_line    0x0000000000002679      0x789 ./StdPeriphDriver/CH57x_gpio.o
 .debug_line    0x0000000000002e02     0x1191 ./StdPeriphDriver/CH57x_pwr.o
 .debug_line    0x0000000000003f93      0xd15 ./StdPeriphDriver/CH57x_sys.o
 .debug_line    0x0000000000004ca8      0x23f ./Startup/startup_CH573.o
 .debug_line    0x0000000000004ee7      0xb5a ./HAL/MCU.o
 .debug_line    0x0000000000005a41      0x4bf ./HAL/RTC.o
 .debug_line    0x0000000000005f00      0x5b5 ./HAL/SLEEP.o
 .debug_line    0x00000000000064b5      0x8e4 ./APP/I2C.o
 .debug_line    0x0000000000006d99      0x5fa ./APP/SHT4X.o
 .debug_line    0x0000000000007393      0x81f ./APP/broadcaster.o
 .debug_line    0x0000000000007bb2      0x46b ./APP/broadcaster_main.o

.debug_str      0x0000000000000000     0x1f21
 .debug_str     0x0000000000000000      0x95a ./StdPeriphDriver/CH57x_adc.o
                                        0x9e4 (size before relaxing)
 .debug_str     0x000000000000095a      0x495 ./StdPeriphDriver/CH57x_clk.o
                                        0xbdf (size before relaxing)
 .debug_str     0x0000000000000def      0x161 ./StdPeriphDriver/CH57x_gpio.o
                                        0x8b6 (size before relaxing)
 .debug_str     0x0000000000000f50      0x3eb ./StdPeriphDriver/CH57x_pwr.o
                                        0xb97 (size before relaxing)
 .debug_str     0x000000000000133b      0x165 ./StdPeriphDriver/CH57x_sys.o
                                        0xb20 (size before relaxing)
 .debug_str     0x00000000000014a0       0x27 ./Startup/startup_CH573.o
                                         0x69 (size before relaxing)
 .debug_str     0x00000000000014c7      0x5a4 ./HAL/MCU.o
                                        0xe93 (size before relaxing)
 .debug_str     0x0000000000001a6b       0x40 ./HAL/RTC.o
                                        0x987 (size before relaxing)
 .debug_str     0x0000000000001aab       0x33 ./HAL/SLEEP.o
                                        0xbd1 (size before relaxing)
 .debug_str     0x0000000000001ade       0x6f ./APP/I2C.o
                                        0x80b (size before relaxing)
 .debug_str     0x0000000000001b4d       0x88 ./APP/SHT4X.o
                                        0x873 (size before relaxing)
 .debug_str     0x0000000000001bd5      0x2f1 ./APP/broadcaster.o
                                        0xd77 (size before relaxing)
 .debug_str     0x0000000000001ec6       0x5b ./APP/broadcaster_main.o
                                        0xb3e (size before relaxing)

.comment        0x0000000000000000       0x33
 .comment       0x0000000000000000       0x33 ./StdPeriphDriver/CH57x_adc.o
                                         0x34 (size before relaxing)
 .comment       0x0000000000000033       0x34 ./StdPeriphDriver/CH57x_clk.o
 .comment       0x0000000000000033       0x34 ./StdPeriphDriver/CH57x_gpio.o
 .comment       0x0000000000000033       0x34 ./StdPeriphDriver/CH57x_pwr.o
 .comment       0x0000000000000033       0x34 ./StdPeriphDriver/CH57x_sys.o
 .comment       0x0000000000000033       0x34 ./HAL/MCU.o
 .comment       0x0000000000000033       0x34 ./HAL/RTC.o
 .comment       0x0000000000000033       0x34 ./HAL/SLEEP.o
 .comment       0x0000000000000033       0x34 ./APP/I2C.o
 .comment       0x0000000000000033       0x34 ./APP/SHT4X.o
 .comment       0x0000000000000033       0x34 ./APP/broadcaster.o
 .comment       0x0000000000000033       0x34 ./APP/broadcaster_main.o
 .comment       0x0000000000000033       0x34 G:\╄    单片机\WCH\CH573\Projects\CH571_BLE_Hygrothermograph\StdPeriphDriver\libISP573.a(ISP573.o)
 .comment       0x0000000000000033       0x34 G:\╄    单片机\WCH\CH573\Projects\CH571_BLE_Hygrothermograph\LIB\libCH57xBLE.a(message.o)
 .comment       0x0000000000000033       0x34 G:\╄    单片机\WCH\CH573\Projects\CH571_BLE_Hygrothermograph\LIB\libCH57xBLE.a(tmos.o)
 .comment       0x0000000000000033       0x34 G:\╄    单片机\WCH\CH573\Projects\CH571_BLE_Hygrothermograph\LIB\libCH57xBLE.a(tmos_hw.o)
 .comment       0x0000000000000033       0x34 G:\╄    单片机\WCH\CH573\Projects\CH571_BLE_Hygrothermograph\LIB\libCH57xBLE.a(tmos_snv.o)
 .comment       0x0000000000000033       0x34 G:\╄    单片机\WCH\CH573\Projects\CH571_BLE_Hygrothermograph\LIB\libCH57xBLE.a(gap.o)
 .comment       0x0000000000000033       0x34 G:\╄    单片机\WCH\CH573\Projects\CH571_BLE_Hygrothermograph\LIB\libCH57xBLE.a(gap_central.o)
 .comment       0x0000000000000033       0x34 G:\╄    单片机\WCH\CH573\Projects\CH571_BLE_Hygrothermograph\LIB\libCH57xBLE.a(gap_peripheral.o)
 .comment       0x0000000000000033       0x34 G:\╄    单片机\WCH\CH573\Projects\CH571_BLE_Hygrothermograph\LIB\libCH57xBLE.a(gatt_uuid.o)
 .comment       0x0000000000000033       0x34 G:\╄    单片机\WCH\CH573\Projects\CH571_BLE_Hygrothermograph\LIB\libCH57xBLE.a(gattservapp.o)
 .comment       0x0000000000000033       0x34 G:\╄    单片机\WCH\CH573\Projects\CH571_BLE_Hygrothermograph\LIB\libCH57xBLE.a(l2cap.o)
 .comment       0x0000000000000033       0x34 G:\╄    单片机\WCH\CH573\Projects\CH571_BLE_Hygrothermograph\LIB\libCH57xBLE.a(l2cap_input.o)
 .comment       0x0000000000000033       0x34 G:\╄    单片机\WCH\CH573\Projects\CH571_BLE_Hygrothermograph\LIB\libCH57xBLE.a(l2cap_output.o)
 .comment       0x0000000000000033       0x34 G:\╄    单片机\WCH\CH573\Projects\CH571_BLE_Hygrothermograph\LIB\libCH57xBLE.a(l2cap_sdu.o)
 .comment       0x0000000000000033       0x34 G:\╄    单片机\WCH\CH573\Projects\CH571_BLE_Hygrothermograph\LIB\libCH57xBLE.a(linkdb.o)
 .comment       0x0000000000000033       0x34 G:\╄    单片机\WCH\CH573\Projects\CH571_BLE_Hygrothermograph\LIB\libCH57xBLE.a(sm.o)
 .comment       0x0000000000000033       0x34 G:\╄    单片机\WCH\CH573\Projects\CH571_BLE_Hygrothermograph\LIB\libCH57xBLE.a(host_input.o)
 .comment       0x0000000000000033       0x34 G:\╄    单片机\WCH\CH573\Projects\CH571_BLE_Hygrothermograph\LIB\libCH57xBLE.a(host_output.o)
 .comment       0x0000000000000033       0x34 G:\╄    单片机\WCH\CH573\Projects\CH571_BLE_Hygrothermograph\LIB\libCH57xBLE.a(ll_connect.o)
 .comment       0x0000000000000033       0x34 G:\╄    单片机\WCH\CH573\Projects\CH571_BLE_Hygrothermograph\LIB\libCH57xBLE.a(ll_core.o)
 .comment       0x0000000000000033       0x34 G:\╄    单片机\WCH\CH573\Projects\CH571_BLE_Hygrothermograph\LIB\libCH57xBLE.a(ll_report.o)
 .comment       0x0000000000000033       0x34 G:\╄    单片机\WCH\CH573\Projects\CH571_BLE_Hygrothermograph\LIB\libCH57xBLE.a(ll_scan.o)
 .comment       0x0000000000000033       0x34 G:\╄    单片机\WCH\CH573\Projects\CH571_BLE_Hygrothermograph\LIB\libCH57xBLE.a(ll_whitelist.o)
 .comment       0x0000000000000033       0x34 G:\╄    单片机\WCH\CH573\Projects\CH571_BLE_Hygrothermograph\LIB\libCH57xBLE.a(aes.o)
 .comment       0x0000000000000033       0x34 G:\╄    单片机\WCH\CH573\Projects\CH571_BLE_Hygrothermograph\LIB\libCH57xBLE.a(bb.o)
 .comment       0x0000000000000033       0x34 G:\╄    单片机\WCH\CH573\Projects\CH571_BLE_Hygrothermograph\LIB\libCH57xBLE.a(dma.o)
 .comment       0x0000000000000033       0x34 G:\╄    单片机\WCH\CH573\Projects\CH571_BLE_Hygrothermograph\LIB\libCH57xBLE.a(ip.o)
 .comment       0x0000000000000033       0x34 G:\╄    单片机\WCH\CH573\Projects\CH571_BLE_Hygrothermograph\LIB\libCH57xBLE.a(lle.o)
 .comment       0x0000000000000033       0x34 G:\╄    单片机\WCH\CH573\Projects\CH571_BLE_Hygrothermograph\LIB\libCH57xBLE.a(rf_fh.o)
 .comment       0x0000000000000033       0x34 G:\╄    单片机\WCH\CH573\Projects\CH571_BLE_Hygrothermograph\LIB\libCH57xBLE.a(rfend.o)
 .comment       0x0000000000000033       0x34 G:\╄    单片机\WCH\CH573\Projects\CH571_BLE_Hygrothermograph\LIB\libCH57xBLE.a(api_c.o)
 .comment       0x0000000000000033       0x34 G:\╄    单片机\WCH\CH573\Projects\CH571_BLE_Hygrothermograph\LIB\libCH57xBLE.a(ctl_input.o)
 .comment       0x0000000000000033       0x34 G:\╄    单片机\WCH\CH573\Projects\CH571_BLE_Hygrothermograph\LIB\libCH57xBLE.a(ctl_output.o)
 .comment       0x0000000000000033       0x34 G:\╄    单片机\WCH\CH573\Projects\CH571_BLE_Hygrothermograph\LIB\libCH57xBLE.a(broadcaster.o)
 .comment       0x0000000000000033       0x34 G:\╄    单片机\WCH\CH573\Projects\CH571_BLE_Hygrothermograph\LIB\libCH57xBLE.a(gapbondmgr.o)
 .comment       0x0000000000000033       0x34 G:\╄    单片机\WCH\CH573\Projects\CH571_BLE_Hygrothermograph\LIB\libCH57xBLE.a(role.o)
 .comment       0x0000000000000033       0x34 G:\╄    单片机\WCH\CH573\Projects\CH571_BLE_Hygrothermograph\LIB\libCH57xBLE.a(memory.o)
 .comment       0x0000000000000033       0x34 G:\╄    单片机\WCH\CH573\Projects\CH571_BLE_Hygrothermograph\LIB\libCH57xBLE.a(att.o)
 .comment       0x0000000000000033       0x34 G:\╄    单片机\WCH\CH573\Projects\CH571_BLE_Hygrothermograph\LIB\libCH57xBLE.a(att_server.o)
 .comment       0x0000000000000033       0x34 G:\╄    单片机\WCH\CH573\Projects\CH571_BLE_Hygrothermograph\LIB\libCH57xBLE.a(gapgattserver.o)
 .comment       0x0000000000000033       0x34 G:\╄    单片机\WCH\CH573\Projects\CH571_BLE_Hygrothermograph\LIB\libCH57xBLE.a(gatt.o)
 .comment       0x0000000000000033       0x34 G:\╄    单片机\WCH\CH573\Projects\CH571_BLE_Hygrothermograph\LIB\libCH57xBLE.a(ll.o)
 .comment       0x0000000000000033       0x34 G:\╄    单片机\WCH\CH573\Projects\CH571_BLE_Hygrothermograph\LIB\libCH57xBLE.a(ll_advertise.o)
 .comment       0x0000000000000033       0x34 G:\╄    单片机\WCH\CH573\Projects\CH571_BLE_Hygrothermograph\LIB\libCH57xBLE.a(ll_initiate.o)
 .comment       0x0000000000000033       0x34 G:\╄    单片机\WCH\CH573\Projects\CH571_BLE_Hygrothermograph\LIB\libCH57xBLE.a(ll_resolvinglist.o)
 .comment       0x0000000000000033       0x34 G:\╄    单片机\WCH\CH573\Projects\CH571_BLE_Hygrothermograph\LIB\libCH57xBLE.a(ll_address.o)

.debug_frame    0x0000000000000000      0xba0
 .debug_frame   0x0000000000000000       0xc0 ./StdPeriphDriver/CH57x_adc.o
 .debug_frame   0x00000000000000c0      0x204 ./StdPeriphDriver/CH57x_clk.o
 .debug_frame   0x00000000000002c4       0x70 ./StdPeriphDriver/CH57x_gpio.o
 .debug_frame   0x0000000000000334      0x110 ./StdPeriphDriver/CH57x_pwr.o
 .debug_frame   0x0000000000000444      0x114 ./StdPeriphDriver/CH57x_sys.o
 .debug_frame   0x0000000000000558      0x10c ./HAL/MCU.o
 .debug_frame   0x0000000000000664       0x50 ./HAL/RTC.o
 .debug_frame   0x00000000000006b4       0x48 ./HAL/SLEEP.o
 .debug_frame   0x00000000000006fc      0x144 ./APP/I2C.o
 .debug_frame   0x0000000000000840       0x90 ./APP/SHT4X.o
 .debug_frame   0x00000000000008d0       0x8c ./APP/broadcaster.o
 .debug_frame   0x000000000000095c       0x40 ./APP/broadcaster_main.o
 .debug_frame   0x000000000000099c       0x54 e:/mounriver/mounriver_studio/toolchain/risc-v embedded gcc/bin/../lib/gcc/riscv-none-embed/8.2.0/rv32imac/ilp32\libgcc.a(muldf3.o)
 .debug_frame   0x00000000000009f0       0x38 e:/mounriver/mounriver_studio/toolchain/risc-v embedded gcc/bin/../lib/gcc/riscv-none-embed/8.2.0/rv32imac/ilp32\libgcc.a(floatsidf.o)
 .debug_frame   0x0000000000000a28       0x50 e:/mounriver/mounriver_studio/toolchain/risc-v embedded gcc/bin/../lib/gcc/riscv-none-embed/8.2.0/rv32imac/ilp32\libgcc.a(divsf3.o)
 .debug_frame   0x0000000000000a78       0x50 e:/mounriver/mounriver_studio/toolchain/risc-v embedded gcc/bin/../lib/gcc/riscv-none-embed/8.2.0/rv32imac/ilp32\libgcc.a(mulsf3.o)
 .debug_frame   0x0000000000000ac8       0x20 e:/mounriver/mounriver_studio/toolchain/risc-v embedded gcc/bin/../lib/gcc/riscv-none-embed/8.2.0/rv32imac/ilp32\libgcc.a(fixsfsi.o)
 .debug_frame   0x0000000000000ae8       0x20 e:/mounriver/mounriver_studio/toolchain/risc-v embedded gcc/bin/../lib/gcc/riscv-none-embed/8.2.0/rv32imac/ilp32\libgcc.a(fixunssfsi.o)
 .debug_frame   0x0000000000000b08       0x38 e:/mounriver/mounriver_studio/toolchain/risc-v embedded gcc/bin/../lib/gcc/riscv-none-embed/8.2.0/rv32imac/ilp32\libgcc.a(floatsisf.o)
 .debug_frame   0x0000000000000b40       0x20 e:/mounriver/mounriver_studio/toolchain/risc-v embedded gcc/bin/../lib/gcc/riscv-none-embed/8.2.0/rv32imac/ilp32\libgcc.a(truncdfsf2.o)
 .debug_frame   0x0000000000000b60       0x20 e:/mounriver/mounriver_studio/toolchain/risc-v embedded gcc/bin/../lib/gcc/riscv-none-embed/8.2.0/rv32imac/ilp32\libgcc.a(_clzsi2.o)
 .debug_frame   0x0000000000000b80       0x20 e:/mounriver/mounriver_studio/toolchain/risc-v embedded gcc/bin/../lib/gcc/riscv-none-embed/8.2.0/../../../../riscv-none-embed/lib/rv32imac/ilp32\libg_nano.a(lib_a-memcpy.o)
